(lp1
(dp2
Vtype
p3
I0
sVname
p4
V\u5317\u4eac
p5
sVsub
p6
(lp7
(dp8
Vname
p9
V\u4e1c\u57ce
p10
sa(dp11
Vname
p12
V\u897f\u57ce
p13
sa(dp14
Vname
p15
V\u5d07\u6587
p16
sa(dp17
Vname
p18
V\u5ba3\u6b66
p19
sa(dp20
Vname
p21
V\u671d\u9633
p22
sa(dp23
Vname
p24
V\u6d77\u6dc0
p25
sa(dp26
Vname
p27
V\u4e30\u53f0
p28
sa(dp29
Vname
p30
V\u77f3\u666f\u5c71
p31
sa(dp32
Vname
p33
V\u623f\u5c71
p34
sa(dp35
Vname
p36
V\u901a\u5dde
p37
sa(dp38
Vname
p39
V\u987a\u4e49
p40
sa(dp41
Vname
p42
V\u660c\u5e73
p43
sa(dp44
Vname
p45
V\u5927\u5174
p46
sa(dp47
Vname
p48
V\u6000\u67d4
p49
sa(dp50
Vname
p51
V\u5e73\u8c37
p52
sa(dp53
Vname
p54
V\u95e8\u5934\u6c9f
p55
sa(dp56
Vname
p57
V\u5bc6\u4e91
p58
sa(dp59
Vname
p60
V\u5ef6\u5e86
p61
sasa(dp62
Vtype
p63
I1
sVname
p64
V\u5e7f\u4e1c
p65
sVsub
p66
(lp67
(dp68
Vtype
p69
I0
sVname
p70
V\u5e7f\u5dde
p71
sVsub
p72
(lp73
(dp74
Vname
p75
V\u8d8a\u79c0
p76
sa(dp77
Vname
p78
V\u8354\u6e7e
p79
sa(dp80
Vname
p81
V\u6d77\u73e0
p82
sa(dp83
Vname
p84
V\u5929\u6cb3
p85
sa(dp86
Vname
p87
V\u767d\u4e91
p88
sa(dp89
Vname
p90
V\u9ec4\u57d4
p91
sa(dp92
Vname
p93
V\u756a\u79ba
p94
sa(dp95
Vname
p96
V\u82b1\u90fd
p97
sa(dp98
Vname
p99
V\u5357\u6c99
p100
sa(dp101
Vname
p102
V\u841d\u5c97
p103
sa(dp104
Vname
p105
V\u589e\u57ce
p106
sa(dp107
Vname
p108
V\u4ece\u5316
p109
sasa(dp110
Vtype
p111
I0
sVname
p112
V\u6df1\u5733
p113
sVsub
p114
(lp115
(dp116
Vname
p117
V\u798f\u7530
p118
sa(dp119
Vname
p120
V\u7f57\u6e56
p121
sa(dp122
Vname
p123
V\u5357\u5c71
p124
sa(dp125
Vname
p126
V\u5b9d\u5b89
p127
sa(dp128
Vname
p129
V\u9f99\u5c97
p130
sa(dp131
Vname
p132
V\u76d0\u7530
p133
sasa(dp134
Vtype
p135
I0
sVname
p136
V\u73e0\u6d77
p137
sVsub
p138
(lp139
(dp140
Vname
p141
V\u9999\u6d32
p142
sa(dp143
Vname
p144
V\u6597\u95e8
p145
sa(dp146
Vname
p147
V\u91d1\u6e7e
p148
sasa(dp149
Vtype
p150
I0
sVname
p151
V\u6c55\u5934
p152
sVsub
p153
(lp154
(dp155
Vname
p156
V\u91d1\u5e73
p157
sa(dp158
Vname
p159
V\u6fe0\u6c5f
p160
sa(dp161
Vname
p162
V\u9f99\u6e56
p163
sa(dp164
Vname
p165
V\u6f6e\u9633
p166
sa(dp167
Vname
p168
V\u6f6e\u5357
p169
sa(dp170
Vname
p171
V\u6f84\u6d77
p172
sa(dp173
Vname
p174
V\u5357\u6fb3
p175
sasa(dp176
Vtype
p177
I0
sVname
p178
V\u97f6\u5173
p179
sVsub
p180
(lp181
(dp182
Vname
p183
V\u6d48\u6c5f
p184
sa(dp185
Vname
p186
V\u6b66\u6c5f
p187
sa(dp188
Vname
p189
V\u66f2\u6c5f
p190
sa(dp191
Vname
p192
V\u4e50\u660c
p193
sa(dp194
Vname
p195
V\u5357\u96c4
p196
sa(dp197
Vname
p198
V\u59cb\u5174
p199
sa(dp200
Vname
p201
V\u4ec1\u5316
p202
sa(dp203
Vname
p204
V\u7fc1\u6e90
p205
sa(dp206
Vname
p207
V\u65b0\u4e30
p208
sa(dp209
Vname
p210
V\u4e73\u6e90\u7476\u65cf\u81ea\u6cbb
p211
sasa(dp212
Vtype
p213
I0
sVname
p214
V\u4f5b\u5c71
p215
sVsub
p216
(lp217
(dp218
Vname
p219
V\u7985\u57ce
p220
sa(dp221
Vname
p222
V\u5357\u6d77
p223
sa(dp224
Vname
p225
V\u987a\u5fb7
p226
sa(dp227
Vname
p228
V\u4e09\u6c34
p229
sa(dp230
Vname
p231
V\u9ad8\u660e
p232
sasa(dp233
Vtype
p234
I0
sVname
p235
V\u6c5f\u95e8
p236
sVsub
p237
(lp238
(dp239
Vname
p240
V\u84ec\u6c5f
p241
sa(dp242
Vname
p243
V\u6c5f\u6d77
p244
sa(dp245
Vname
p246
V\u65b0\u4f1a
p247
sa(dp248
Vname
p249
V\u6069\u5e73
p250
sa(dp251
Vname
p252
V\u53f0\u5c71
p253
sa(dp254
Vname
p255
V\u5f00\u5e73
p256
sa(dp257
Vname
p258
V\u9e64\u5c71
p259
sasa(dp260
Vtype
p261
I0
sVname
p262
V\u6e5b\u6c5f
p263
sVsub
p264
(lp265
(dp266
Vname
p267
V\u8d64\u574e
p268
sa(dp269
Vname
p270
V\u971e\u5c71
p271
sa(dp272
Vname
p273
V\u5761\u5934
p274
sa(dp275
Vname
p276
V\u9ebb\u7ae0
p277
sa(dp278
Vname
p279
V\u5434\u5ddd
p280
sa(dp281
Vname
p282
V\u5ec9\u6c5f
p283
sa(dp284
Vname
p285
V\u96f7\u5dde
p286
sa(dp287
Vname
p288
V\u9042\u6eaa
p289
sa(dp290
Vname
p291
V\u5f90\u95fb
p292
sasa(dp293
Vtype
p294
I0
sVname
p295
V\u8302\u540d
p296
sVsub
p297
(lp298
(dp299
Vname
p300
V\u8302\u5357
p301
sa(dp302
Vname
p303
V\u8302\u6e2f
p304
sa(dp305
Vname
p306
V\u5316\u5dde
p307
sa(dp308
Vname
p309
V\u4fe1\u5b9c
p310
sa(dp311
Vname
p312
V\u9ad8\u5dde
p313
sa(dp314
Vname
p315
V\u7535\u767d
p316
sasa(dp317
Vtype
p318
I0
sVname
p319
V\u8087\u5e86
p320
sVsub
p321
(lp322
(dp323
Vname
p324
V\u7aef\u5dde
p325
sa(dp326
Vname
p327
V\u9f0e\u6e56
p328
sa(dp329
Vname
p330
V\u9ad8\u8981
p331
sa(dp332
Vname
p333
V\u56db\u4f1a
p334
sa(dp335
Vname
p336
V\u5e7f\u5b81
p337
sa(dp338
Vname
p339
V\u6000\u96c6
p340
sa(dp341
Vname
p342
V\u5c01\u5f00
p343
sa(dp344
Vname
p345
V\u5fb7\u5e86
p346
sasa(dp347
Vtype
p348
I0
sVname
p349
V\u60e0\u5dde
p350
sVsub
p351
(lp352
(dp353
Vname
p354
V\u60e0\u57ce
p355
sa(dp356
Vname
p357
V\u60e0\u9633
p358
sa(dp359
Vname
p360
V\u535a\u7f57
p361
sa(dp362
Vname
p363
V\u60e0\u4e1c
p364
sa(dp365
Vname
p366
V\u9f99\u95e8
p367
sasa(dp368
Vtype
p369
I0
sVname
p370
V\u6885\u5dde
p371
sVsub
p372
(lp373
(dp374
Vname
p375
V\u6885\u6c5f
p376
sa(dp377
Vname
p378
V\u5174\u5b81
p379
sa(dp380
Vname
p381
V\u6885
sa(dp382
Vname
p383
V\u5927\u57d4
p384
sa(dp385
Vname
p386
V\u4e30\u987a
p387
sa(dp388
Vname
p389
V\u4e94\u534e
p390
sa(dp391
Vname
p392
V\u5e73\u8fdc
p393
sa(dp394
Vname
p395
V\u8549\u5cad
p396
sasa(dp397
Vtype
p398
I0
sVname
p399
V\u6c55\u5c3e
p400
sVsub
p401
(lp402
(dp403
Vname
p404
V\u57ce
sa(dp405
Vname
p406
V\u9646\u4e30
p407
sa(dp408
Vname
p409
V\u6d77\u4e30
p410
sa(dp411
Vname
p412
V\u9646\u6cb3
p413
sasa(dp414
Vtype
p415
I0
sVname
p416
V\u6cb3\u6e90
p417
sVsub
p418
(lp419
(dp420
Vname
p421
V\u6e90\u57ce
p422
sa(dp423
Vname
p424
V\u7d2b\u91d1
p425
sa(dp426
Vname
p427
V\u9f99\u5ddd
p428
sa(dp429
Vname
p430
V\u8fde\u5e73
p431
sa(dp432
Vname
p433
V\u548c\u5e73
p434
sa(dp435
Vname
p436
V\u4e1c\u6e90
p437
sasa(dp438
Vtype
p439
I0
sVname
p440
V\u9633\u6c5f
p441
sVsub
p442
(lp443
(dp444
Vname
p445
V\u6c5f\u57ce
p446
sa(dp447
Vname
p448
V\u9633\u6625
p449
sa(dp450
Vname
p451
V\u9633\u897f
p452
sa(dp453
Vname
p454
V\u9633\u4e1c
p455
sasa(dp456
Vtype
p457
I0
sVname
p458
V\u6e05\u8fdc
p459
sVsub
p460
(lp461
(dp462
Vname
p463
V\u6e05\u57ce
p464
sa(dp465
Vname
p466
V\u82f1\u5fb7
p467
sa(dp468
Vname
p469
V\u8fde\u5dde
p470
sa(dp471
Vname
p472
V\u4f5b\u5188
p473
sa(dp474
Vname
p475
V\u9633\u5c71
p476
sa(dp477
Vname
p478
V\u6e05\u65b0
p479
sa(dp480
Vname
p481
V\u8fde\u5c71\u58ee\u65cf\u7476\u65cf\u81ea\u6cbb
p482
sa(dp483
Vname
p484
V\u8fde\u5357\u7476\u65cf\u81ea\u6cbb
p485
sasa(dp486
Vtype
p487
I0
sVname
p488
V\u4e1c\u839e
p489
sVsub
p490
(lp491
sa(dp492
Vtype
p493
I0
sVname
p494
V\u4e2d\u5c71
p495
sVsub
p496
(lp497
sa(dp498
Vtype
p499
I0
sVname
p500
V\u6f6e\u5dde
p501
sVsub
p502
(lp503
(dp504
Vname
p505
V\u6e58\u6865
p506
sa(dp507
Vname
p508
V\u6f6e\u5b89
p509
sa(dp510
Vname
p511
V\u9976\u5e73
p512
sasa(dp513
Vtype
p514
I0
sVname
p515
V\u63ed\u9633
p516
sVsub
p517
(lp518
(dp519
Vname
p520
V\u6995\u57ce
p521
sa(dp522
Vname
p523
V\u666e\u5b81
p524
sa(dp525
Vname
p526
V\u63ed\u4e1c
p527
sa(dp528
Vname
p529
V\u63ed\u897f
p530
sa(dp531
Vname
p532
V\u60e0\u6765
p533
sasa(dp534
Vtype
p535
I0
sVname
p536
V\u4e91\u6d6e
p537
sVsub
p538
(lp539
(dp540
Vname
p541
V\u4e91\u57ce
p542
sa(dp543
Vname
p544
V\u7f57\u5b9a
p545
sa(dp546
Vname
p547
V\u4e91\u5b89
p548
sa(dp549
Vname
p550
V\u65b0\u5174
p551
sa(dp552
Vname
p553
V\u90c1\u5357
p554
sasasa(dp555
Vtype
p556
I0
sVname
p557
V\u4e0a\u6d77
p558
sVsub
p559
(lp560
(dp561
Vname
p562
V\u9ec4\u6d66
p563
sa(dp564
Vname
p565
V\u5362\u6e7e
p566
sa(dp567
Vname
p568
V\u5f90\u6c47
p569
sa(dp570
Vname
p571
V\u957f\u5b81
p572
sa(dp573
Vname
p574
V\u9759\u5b89
p575
sa(dp576
Vname
p577
V\u666e\u9640
p578
sa(dp579
Vname
p580
V\u95f8\u5317
p581
sa(dp582
Vname
p583
V\u8679\u53e3
p584
sa(dp585
Vname
p586
V\u6768\u6d66
p587
sa(dp588
Vname
p589
V\u5b9d\u5c71
p590
sa(dp591
Vname
p592
V\u95f5\u884c
p593
sa(dp594
Vname
p595
V\u5609\u5b9a
p596
sa(dp597
Vname
p598
V\u677e\u6c5f
p599
sa(dp600
Vname
p601
V\u91d1\u5c71
p602
sa(dp603
Vname
p604
V\u9752\u6d66
p605
sa(dp606
Vname
p607
V\u5357\u6c47
p608
sa(dp609
Vname
p610
V\u5949\u8d24
p611
sa(dp612
Vname
p613
V\u6d66\u4e1c\u65b0
p614
sa(dp615
Vname
p616
V\u5d07\u660e
p617
sasa(dp618
Vtype
p619
I0
sVname
p620
V\u5929\u6d25
p621
sVsub
p622
(lp623
(dp624
Vname
p625
V\u548c\u5e73
p626
sa(dp627
Vname
p628
V\u6cb3\u4e1c
p629
sa(dp630
Vname
p631
V\u6cb3\u897f
p632
sa(dp633
Vname
p634
V\u5357\u5f00
p635
sa(dp636
Vname
p637
V\u6cb3\u5317
p638
sa(dp639
Vname
p640
V\u7ea2\u6865
p641
sa(dp642
Vname
p643
V\u5858\u6cbd
p644
sa(dp645
Vname
p646
V\u6c49\u6cbd
p647
sa(dp648
Vname
p649
V\u5927\u6e2f
p650
sa(dp651
Vname
p652
V\u4e1c\u4e3d
p653
sa(dp654
Vname
p655
V\u897f\u9752
p656
sa(dp657
Vname
p658
V\u5317\u8fb0
p659
sa(dp660
Vname
p661
V\u6d25\u5357
p662
sa(dp663
Vname
p664
V\u6b66\u6e05
p665
sa(dp666
Vname
p667
V\u5b9d\u577b
p668
sa(dp669
Vname
p670
V\u9759\u6d77
p671
sa(dp672
Vname
p673
V\u5b81\u6cb3
p674
sa(dp675
Vname
p676
V\u84df
sasa(dp677
Vtype
p678
I0
sVname
p679
V\u91cd\u5e86
p680
sVsub
p681
(lp682
(dp683
Vname
p684
V\u6e1d\u4e2d
p685
sa(dp686
Vname
p687
V\u5927\u6e21\u53e3
p688
sa(dp689
Vname
p690
V\u6c5f\u5317
p691
sa(dp692
Vname
p693
V\u5357\u5cb8
p694
sa(dp695
Vname
p696
V\u5317\u789a
p697
sa(dp698
Vname
p699
V\u6e1d\u5317
p700
sa(dp701
Vname
p702
V\u5df4\u5357
p703
sa(dp704
Vname
p705
V\u957f\u5bff
p706
sa(dp707
Vname
p708
V\u53cc\u6865
p709
sa(dp710
Vname
p711
V\u6c99\u576a\u575d
p712
sa(dp713
Vname
p714
V\u4e07\u76db
p715
sa(dp716
Vname
p717
V\u4e07\u5dde
p718
sa(dp719
Vname
p720
V\u6daa\u9675
p721
sa(dp722
Vname
p723
V\u9ed4\u6c5f
p724
sa(dp725
Vname
p726
V\u6c38\u5ddd
p727
sa(dp728
Vname
p729
V\u5408\u5ddd
p730
sa(dp731
Vname
p732
V\u6c5f\u6d25
p733
sa(dp734
Vname
p735
V\u4e5d\u9f99\u5761
p736
sa(dp737
Vname
p738
V\u5357\u5ddd
p739
sa(dp740
Vname
p741
V\u7da6\u6c5f
p742
sa(dp743
Vname
p744
V\u6f7c\u5357
p745
sa(dp746
Vname
p747
V\u8363\u660c
p748
sa(dp749
Vname
p750
V\u74a7\u5c71
p751
sa(dp752
Vname
p753
V\u5927\u8db3
p754
sa(dp755
Vname
p756
V\u94dc\u6881
p757
sa(dp758
Vname
p759
V\u6881\u5e73
p760
sa(dp761
Vname
p762
V\u5f00
sa(dp763
Vname
p764
V\u5fe0
sa(dp765
Vname
p766
V\u57ce\u53e3
p767
sa(dp768
Vname
p769
V\u57ab\u6c5f
p770
sa(dp771
Vname
p772
V\u6b66\u9686
p773
sa(dp774
Vname
p775
V\u4e30\u90fd
p776
sa(dp777
Vname
p778
V\u5949\u8282
p779
sa(dp780
Vname
p781
V\u4e91\u9633
p782
sa(dp783
Vname
p784
V\u5deb\u6eaa
p785
sa(dp786
Vname
p787
V\u5deb\u5c71
p788
sa(dp789
Vname
p790
V\u77f3\u67f1\u571f\u5bb6\u65cf\u81ea\u6cbb
p791
sa(dp792
Vname
p793
V\u79c0\u5c71\u571f\u5bb6\u65cf\u82d7\u65cf\u81ea\u6cbb
p794
sa(dp795
Vname
p796
V\u9149\u9633\u571f\u5bb6\u65cf\u82d7\u65cf\u81ea\u6cbb
p797
sa(dp798
Vname
p799
V\u5f6d\u6c34\u82d7\u65cf\u571f\u5bb6\u65cf\u81ea\u6cbb
p800
sasa(dp801
Vtype
p802
I1
sVname
p803
V\u8fbd\u5b81
p804
sVsub
p805
(lp806
(dp807
Vtype
p808
I0
sVname
p809
V\u6c88\u9633
p810
sVsub
p811
(lp812
(dp813
Vname
p814
V\u6c88\u6cb3
p815
sa(dp816
Vname
p817
V\u7687\u59d1
p818
sa(dp819
Vname
p820
V\u548c\u5e73
p821
sa(dp822
Vname
p823
V\u5927\u4e1c
p824
sa(dp825
Vname
p826
V\u94c1\u897f
p827
sa(dp828
Vname
p829
V\u82cf\u5bb6\u5c6f
p830
sa(dp831
Vname
p832
V\u4e1c\u9675
p833
sa(dp834
Vname
p835
V\u4e8e\u6d2a
p836
sa(dp837
Vname
p838
V\u65b0\u6c11
p839
sa(dp840
Vname
p841
V\u6cd5\u5e93
p842
sa(dp843
Vname
p844
V\u8fbd\u4e2d
p845
sa(dp846
Vname
p847
V\u5eb7\u5e73
p848
sa(dp849
Vname
p850
V\u65b0\u57ce\u5b50
p851
sasa(dp852
Vtype
p853
I0
sVname
p854
V\u5927\u8fde
p855
sVsub
p856
(lp857
(dp858
Vname
p859
V\u897f\u5c97
p860
sa(dp861
Vname
p862
V\u4e2d\u5c71
p863
sa(dp864
Vname
p865
V\u6c99\u6cb3\u53e3
p866
sa(dp867
Vname
p868
V\u7518\u4e95\u5b50
p869
sa(dp870
Vname
p871
V\u65c5\u987a\u53e3
p872
sa(dp873
Vname
p874
V\u91d1\u5dde
p875
sa(dp876
Vname
p877
V\u74e6\u623f\u5e97
p878
sa(dp879
Vname
p880
V\u666e\u5170\u5e97
p881
sa(dp882
Vname
p883
V\u5e84\u6cb3
p884
sa(dp885
Vname
p886
V\u957f\u6d77
p887
sasa(dp888
Vtype
p889
I0
sVname
p890
V\u978d\u5c71
p891
sVsub
p892
(lp893
(dp894
Vname
p895
V\u94c1\u4e1c
p896
sa(dp897
Vname
p898
V\u94c1\u897f
p899
sa(dp900
Vname
p901
V\u7acb\u5c71
p902
sa(dp903
Vname
p904
V\u5343\u5c71
p905
sa(dp906
Vname
p907
V\u6d77\u57ce
p908
sa(dp909
Vname
p910
V\u53f0\u5b89
p911
sa(dp912
Vname
p913
V\u5cab\u5ca9\u6ee1\u65cf\u81ea\u6cbb
p914
sasa(dp915
Vtype
p916
I0
sVname
p917
V\u629a\u987a
p918
sVsub
p919
(lp920
(dp921
Vname
p922
V\u987a\u57ce
p923
sa(dp924
Vname
p925
V\u65b0\u629a
p926
sa(dp927
Vname
p928
V\u4e1c\u6d32
p929
sa(dp930
Vname
p931
V\u671b\u82b1
p932
sa(dp933
Vname
p934
V\u629a\u987a
p935
sa(dp936
Vname
p937
V\u6e05\u539f\u6ee1\u65cf\u81ea\u6cbb
p938
sa(dp939
Vname
p940
V\u65b0\u5bbe\u6ee1\u65cf\u81ea\u6cbb
p941
sasa(dp942
Vtype
p943
I0
sVname
p944
V\u672c\u6eaa
p945
sVsub
p946
(lp947
(dp948
Vname
p949
V\u5e73\u5c71
p950
sa(dp951
Vname
p952
V\u660e\u5c71
p953
sa(dp954
Vname
p955
V\u6eaa\u6e56
p956
sa(dp957
Vname
p958
V\u5357\u82ac
p959
sa(dp960
Vname
p961
V\u672c\u6eaa\u6ee1\u65cf\u81ea\u6cbb
p962
sa(dp963
Vname
p964
V\u6853\u4ec1\u6ee1\u65cf\u81ea\u6cbb
p965
sasa(dp966
Vtype
p967
I0
sVname
p968
V\u4e39\u4e1c
p969
sVsub
p970
(lp971
(dp972
Vname
p973
V\u632f\u5174
p974
sa(dp975
Vname
p976
V\u5143\u5b9d
p977
sa(dp978
Vname
p979
V\u632f\u5b89
p980
sa(dp981
Vname
p982
V\u4e1c\u6e2f
p983
sa(dp984
Vname
p985
V\u51e4\u57ce
p986
sa(dp987
Vname
p988
V\u5bbd\u7538\u6ee1\u65cf\u81ea\u6cbb
p989
sasa(dp990
Vtype
p991
I0
sVname
p992
V\u9526\u5dde
p993
sVsub
p994
(lp995
(dp996
Vname
p997
V\u592a\u548c
p998
sa(dp999
Vname
p1000
V\u53e4\u5854
p1001
sa(dp1002
Vname
p1003
V\u51cc\u6cb3
p1004
sa(dp1005
Vname
p1006
V\u51cc\u6d77
p1007
sa(dp1008
Vname
p1009
V\u9ed1\u5c71
p1010
sa(dp1011
Vname
p1012
V\u4e49
sa(dp1013
Vname
p1014
V\u5317\u5b81
p1015
sasa(dp1016
Vtype
p1017
I0
sVname
p1018
V\u8425\u53e3
p1019
sVsub
p1020
(lp1021
(dp1022
Vname
p1023
V\u7ad9\u524d
p1024
sa(dp1025
Vname
p1026
V\u897f
sa(dp1027
Vname
p1028
V\u9c85\u9c7c\u5708
p1029
sa(dp1030
Vname
p1031
V\u8001\u8fb9
p1032
sa(dp1033
Vname
p1034
V\u5927\u77f3\u6865
p1035
sa(dp1036
Vname
p1037
V\u76d6\u5dde
p1038
sasa(dp1039
Vtype
p1040
I0
sVname
p1041
V\u961c\u65b0
p1042
sVsub
p1043
(lp1044
(dp1045
Vname
p1046
V\u6d77\u5dde
p1047
sa(dp1048
Vname
p1049
V\u65b0\u90b1
p1050
sa(dp1051
Vname
p1052
V\u592a\u5e73
p1053
sa(dp1054
Vname
p1055
V\u6e05\u6cb3\u95e8
p1056
sa(dp1057
Vname
p1058
V\u7ec6\u6cb3
p1059
sa(dp1060
Vname
p1061
V\u5f70\u6b66
p1062
sa(dp1063
Vname
p1064
V\u961c\u65b0\u8499\u53e4\u65cf\u81ea\u6cbb
p1065
sasa(dp1066
Vtype
p1067
I0
sVname
p1068
V\u8fbd\u9633
p1069
sVsub
p1070
(lp1071
(dp1072
Vname
p1073
V\u767d\u5854
p1074
sa(dp1075
Vname
p1076
V\u6587\u5723
p1077
sa(dp1078
Vname
p1079
V\u5b8f\u4f1f
p1080
sa(dp1081
Vname
p1082
V\u592a\u5b50\u6cb3
p1083
sa(dp1084
Vname
p1085
V\u5f13\u957f\u5cad
p1086
sa(dp1087
Vname
p1088
V\u706f\u5854
p1089
sa(dp1090
Vname
p1091
V\u8fbd\u9633
p1092
sasa(dp1093
Vtype
p1094
I0
sVname
p1095
V\u76d8\u9526
p1096
sVsub
p1097
(lp1098
(dp1099
Vname
p1100
V\u53cc\u53f0\u5b50
p1101
sa(dp1102
Vname
p1103
V\u5174\u9686\u53f0
p1104
sa(dp1105
Vname
p1106
V\u76d8\u5c71
p1107
sa(dp1108
Vname
p1109
V\u5927\u6d3c
p1110
sasa(dp1111
Vtype
p1112
I0
sVname
p1113
V\u94c1\u5cad
p1114
sVsub
p1115
(lp1116
(dp1117
Vname
p1118
V\u94f6\u5dde
p1119
sa(dp1120
Vname
p1121
V\u6e05\u6cb3
p1122
sa(dp1123
Vname
p1124
V\u8c03\u5175\u5c71
p1125
sa(dp1126
Vname
p1127
V\u5f00\u539f
p1128
sa(dp1129
Vname
p1130
V\u94c1\u5cad
p1131
sa(dp1132
Vname
p1133
V\u660c\u56fe
p1134
sa(dp1135
Vname
p1136
V\u897f\u4e30
p1137
sasa(dp1138
Vtype
p1139
I0
sVname
p1140
V\u671d\u9633
p1141
sVsub
p1142
(lp1143
(dp1144
Vname
p1145
V\u53cc\u5854
p1146
sa(dp1147
Vname
p1148
V\u9f99\u57ce
p1149
sa(dp1150
Vname
p1151
V\u51cc\u6e90
p1152
sa(dp1153
Vname
p1154
V\u5317\u7968
p1155
sa(dp1156
Vname
p1157
V\u671d\u9633
p1158
sa(dp1159
Vname
p1160
V\u5efa\u5e73
p1161
sa(dp1162
Vname
p1163
V\u5580\u5587\u6c81\u5de6\u7ffc\u8499\u53e4\u65cf\u81ea\u6cbb
p1164
sasa(dp1165
Vtype
p1166
I0
sVname
p1167
V\u846b\u82a6\u5c9b
p1168
sVsub
p1169
(lp1170
(dp1171
Vname
p1172
V\u9f99\u6e2f
p1173
sa(dp1174
Vname
p1175
V\u5357\u7968
p1176
sa(dp1177
Vname
p1178
V\u8fde\u5c71
p1179
sa(dp1180
Vname
p1181
V\u5174\u57ce
p1182
sa(dp1183
Vname
p1184
V\u7ee5\u4e2d
p1185
sa(dp1186
Vname
p1187
V\u5efa\u660c
p1188
sasasa(dp1189
Vtype
p1190
I1
sVname
p1191
V\u6c5f\u82cf
p1192
sVsub
p1193
(lp1194
(dp1195
Vtype
p1196
I0
sVname
p1197
V\u5357\u4eac
p1198
sVsub
p1199
(lp1200
(dp1201
Vname
p1202
V\u7384\u6b66
p1203
sa(dp1204
Vname
p1205
V\u767d\u4e0b
p1206
sa(dp1207
Vname
p1208
V\u79e6\u6dee
p1209
sa(dp1210
Vname
p1211
V\u5efa\u90ba
p1212
sa(dp1213
Vname
p1214
V\u9f13\u697c
p1215
sa(dp1216
Vname
p1217
V\u4e0b\u5173
p1218
sa(dp1219
Vname
p1220
V\u6816\u971e
p1221
sa(dp1222
Vname
p1223
V\u96e8\u82b1\u53f0
p1224
sa(dp1225
Vname
p1226
V\u6d66\u53e3
p1227
sa(dp1228
Vname
p1229
V\u6c5f\u5b81
p1230
sa(dp1231
Vname
p1232
V\u516d\u5408
p1233
sa(dp1234
Vname
p1235
V\u6ea7\u6c34
p1236
sa(dp1237
Vname
p1238
V\u9ad8\u6df3
p1239
sasa(dp1240
Vtype
p1241
I0
sVname
p1242
V\u82cf\u5dde
p1243
sVsub
p1244
(lp1245
(dp1246
Vname
p1247
V\u91d1\u960a
p1248
sa(dp1249
Vname
p1250
V\u5e73\u6c5f
p1251
sa(dp1252
Vname
p1253
V\u6ca7\u6d6a
p1254
sa(dp1255
Vname
p1256
V\u864e\u4e18
p1257
sa(dp1258
Vname
p1259
V\u5434\u4e2d
p1260
sa(dp1261
Vname
p1262
V\u76f8\u57ce
p1263
sa(dp1264
Vname
p1265
V\u5e38\u719f
p1266
sa(dp1267
Vname
p1268
V\u5f20\u5bb6\u6e2f
p1269
sa(dp1270
Vname
p1271
V\u6606\u5c71
p1272
sa(dp1273
Vname
p1274
V\u5434\u6c5f
p1275
sa(dp1276
Vname
p1277
V\u592a\u4ed3
p1278
sasa(dp1279
Vtype
p1280
I0
sVname
p1281
V\u65e0\u9521
p1282
sVsub
p1283
(lp1284
(dp1285
Vname
p1286
V\u5d07\u5b89
p1287
sa(dp1288
Vname
p1289
V\u5357\u957f
p1290
sa(dp1291
Vname
p1292
V\u5317\u5858
p1293
sa(dp1294
Vname
p1295
V\u6ee8\u6e56
p1296
sa(dp1297
Vname
p1298
V\u9521\u5c71
p1299
sa(dp1300
Vname
p1301
V\u60e0\u5c71
p1302
sa(dp1303
Vname
p1304
V\u6c5f\u9634
p1305
sa(dp1306
Vname
p1307
V\u5b9c\u5174
p1308
sasa(dp1309
Vtype
p1310
I0
sVname
p1311
V\u5e38\u5dde
p1312
sVsub
p1313
(lp1314
(dp1315
Vname
p1316
V\u949f\u697c
p1317
sa(dp1318
Vname
p1319
V\u5929\u5b81
p1320
sa(dp1321
Vname
p1322
V\u621a\u5885\u5830
p1323
sa(dp1324
Vname
p1325
V\u65b0\u5317
p1326
sa(dp1327
Vname
p1328
V\u6b66\u8fdb
p1329
sa(dp1330
Vname
p1331
V\u91d1\u575b
p1332
sa(dp1333
Vname
p1334
V\u6ea7\u9633
p1335
sasa(dp1336
Vtype
p1337
I0
sVname
p1338
V\u9547\u6c5f
p1339
sVsub
p1340
(lp1341
(dp1342
Vname
p1343
V\u4eac\u53e3
p1344
sa(dp1345
Vname
p1346
V\u6da6\u5dde
p1347
sa(dp1348
Vname
p1349
V\u4e39\u5f92
p1350
sa(dp1351
Vname
p1352
V\u4e39\u9633
p1353
sa(dp1354
Vname
p1355
V\u626c\u4e2d
p1356
sa(dp1357
Vname
p1358
V\u53e5\u5bb9
p1359
sasa(dp1360
Vtype
p1361
I0
sVname
p1362
V\u5357\u901a
p1363
sVsub
p1364
(lp1365
(dp1366
Vname
p1367
V\u5d07\u5ddd
p1368
sa(dp1369
Vname
p1370
V\u6e2f\u95f8
p1371
sa(dp1372
Vname
p1373
V\u901a\u5dde
p1374
sa(dp1375
Vname
p1376
V\u5982\u768b
p1377
sa(dp1378
Vname
p1379
V\u6d77\u95e8
p1380
sa(dp1381
Vname
p1382
V\u542f\u4e1c
p1383
sa(dp1384
Vname
p1385
V\u6d77\u5b89
p1386
sa(dp1387
Vname
p1388
V\u5982\u4e1c
p1389
sasa(dp1390
Vtype
p1391
I0
sVname
p1392
V\u6cf0\u5dde
p1393
sVsub
p1394
(lp1395
(dp1396
Vname
p1397
V\u6d77\u9675
p1398
sa(dp1399
Vname
p1400
V\u9ad8\u6e2f
p1401
sa(dp1402
Vname
p1403
V\u59dc\u5830
p1404
sa(dp1405
Vname
p1406
V\u6cf0\u5174
p1407
sa(dp1408
Vname
p1409
V\u9756\u6c5f
p1410
sa(dp1411
Vname
p1412
V\u5174\u5316
p1413
sasa(dp1414
Vtype
p1415
I0
sVname
p1416
V\u626c\u5dde
p1417
sVsub
p1418
(lp1419
(dp1420
Vname
p1421
V\u5e7f\u9675
p1422
sa(dp1423
Vname
p1424
V\u7ef4\u626c
p1425
sa(dp1426
Vname
p1427
V\u9097\u6c5f
p1428
sa(dp1429
Vname
p1430
V\u6c5f\u90fd
p1431
sa(dp1432
Vname
p1433
V\u4eea\u5f81
p1434
sa(dp1435
Vname
p1436
V\u9ad8\u90ae
p1437
sa(dp1438
Vname
p1439
V\u5b9d\u5e94
p1440
sasa(dp1441
Vtype
p1442
I0
sVname
p1443
V\u76d0\u57ce
p1444
sVsub
p1445
(lp1446
(dp1447
Vname
p1448
V\u4ead\u6e56
p1449
sa(dp1450
Vname
p1451
V\u76d0\u90fd
p1452
sa(dp1453
Vname
p1454
V\u5927\u4e30
p1455
sa(dp1456
Vname
p1457
V\u4e1c\u53f0
p1458
sa(dp1459
Vname
p1460
V\u5efa\u6e56
p1461
sa(dp1462
Vname
p1463
V\u5c04\u9633
p1464
sa(dp1465
Vname
p1466
V\u961c\u5b81
p1467
sa(dp1468
Vname
p1469
V\u6ee8\u6d77
p1470
sa(dp1471
Vname
p1472
V\u54cd\u6c34
p1473
sasa(dp1474
Vtype
p1475
I0
sVname
p1476
V\u8fde\u4e91\u6e2f
p1477
sVsub
p1478
(lp1479
(dp1480
Vname
p1481
V\u65b0\u6d66
p1482
sa(dp1483
Vname
p1484
V\u6d77\u5dde
p1485
sa(dp1486
Vname
p1487
V\u8fde\u4e91
p1488
sa(dp1489
Vname
p1490
V\u4e1c\u6d77
p1491
sa(dp1492
Vname
p1493
V\u704c\u4e91
p1494
sa(dp1495
Vname
p1496
V\u8d63\u6986
p1497
sa(dp1498
Vname
p1499
V\u704c\u5357
p1500
sasa(dp1501
Vtype
p1502
I0
sVname
p1503
V\u5f90\u5dde
p1504
sVsub
p1505
(lp1506
(dp1507
Vname
p1508
V\u4e91\u9f99
p1509
sa(dp1510
Vname
p1511
V\u9f13\u697c
p1512
sa(dp1513
Vname
p1514
V\u4e5d\u91cc
p1515
sa(dp1516
Vname
p1517
V\u6cc9\u5c71
p1518
sa(dp1519
Vname
p1520
V\u8d3e\u6c6a
p1521
sa(dp1522
Vname
p1523
V\u90b3\u5dde
p1524
sa(dp1525
Vname
p1526
V\u65b0\u6c82
p1527
sa(dp1528
Vname
p1529
V\u94dc\u5c71
p1530
sa(dp1531
Vname
p1532
V\u7762\u5b81
p1533
sa(dp1534
Vname
p1535
V\u6c9b
sa(dp1536
Vname
p1537
V\u4e30
sasa(dp1538
Vtype
p1539
I0
sVname
p1540
V\u6dee\u5b89
p1541
sVsub
p1542
(lp1543
(dp1544
Vname
p1545
V\u6e05\u6cb3
p1546
sa(dp1547
Vname
p1548
V\u6e05\u6d66
p1549
sa(dp1550
Vname
p1551
V\u695a\u5dde
p1552
sa(dp1553
Vname
p1554
V\u6dee\u9634
p1555
sa(dp1556
Vname
p1557
V\u6d9f\u6c34
p1558
sa(dp1559
Vname
p1560
V\u6d2a\u6cfd
p1561
sa(dp1562
Vname
p1563
V\u91d1\u6e56
p1564
sa(dp1565
Vname
p1566
V\u76f1\u7719
p1567
sasa(dp1568
Vtype
p1569
I0
sVname
p1570
V\u5bbf\u8fc1
p1571
sVsub
p1572
(lp1573
(dp1574
Vname
p1575
V\u5bbf\u57ce
p1576
sa(dp1577
Vname
p1578
V\u5bbf\u8c6b
p1579
sa(dp1580
Vname
p1581
V\u6cad\u9633
p1582
sa(dp1583
Vname
p1584
V\u6cd7\u9633
p1585
sa(dp1586
Vname
p1587
V\u6cd7\u6d2a
p1588
sasasa(dp1589
Vtype
p1590
I1
sVname
p1591
V\u6e56\u5317
p1592
sVsub
p1593
(lp1594
(dp1595
Vtype
p1596
I0
sVname
p1597
V\u6b66\u6c49
p1598
sVsub
p1599
(lp1600
(dp1601
Vname
p1602
V\u6c5f\u5cb8
p1603
sa(dp1604
Vname
p1605
V\u6b66\u660c
p1606
sa(dp1607
Vname
p1608
V\u6c5f\u6c49
p1609
sa(dp1610
Vname
p1611
V\u785a\u53e3
p1612
sa(dp1613
Vname
p1614
V\u6c49\u9633
p1615
sa(dp1616
Vname
p1617
V\u9752\u5c71
p1618
sa(dp1619
Vname
p1620
V\u6d2a\u5c71
p1621
sa(dp1622
Vname
p1623
V\u4e1c\u897f\u6e56
p1624
sa(dp1625
Vname
p1626
V\u6c49\u5357
p1627
sa(dp1628
Vname
p1629
V\u8521\u7538
p1630
sa(dp1631
Vname
p1632
V\u6c5f\u590f
p1633
sa(dp1634
Vname
p1635
V\u9ec4\u9642
p1636
sa(dp1637
Vname
p1638
V\u65b0\u6d32
p1639
sasa(dp1640
Vtype
p1641
I0
sVname
p1642
V\u9ec4\u77f3
p1643
sVsub
p1644
(lp1645
(dp1646
Vname
p1647
V\u9ec4\u77f3\u6e2f
p1648
sa(dp1649
Vname
p1650
V\u897f\u585e\u5c71
p1651
sa(dp1652
Vname
p1653
V\u4e0b\u9646
p1654
sa(dp1655
Vname
p1656
V\u94c1\u5c71
p1657
sa(dp1658
Vname
p1659
V\u5927\u51b6
p1660
sa(dp1661
Vname
p1662
V\u9633\u65b0
p1663
sasa(dp1664
Vtype
p1665
I0
sVname
p1666
V\u5341\u5830
p1667
sVsub
p1668
(lp1669
(dp1670
Vname
p1671
V\u5f20\u6e7e
p1672
sa(dp1673
Vname
p1674
V\u8305\u7bad
p1675
sa(dp1676
Vname
p1677
V\u4e39\u6c5f\u53e3
p1678
sa(dp1679
Vname
p1680
V\u90e7
sa(dp1681
Vname
p1682
V\u7af9\u5c71
p1683
sa(dp1684
Vname
p1685
V\u623f
sa(dp1686
Vname
p1687
V\u90e7\u897f
p1688
sa(dp1689
Vname
p1690
V\u7af9\u6eaa
p1691
sasa(dp1692
Vtype
p1693
I0
sVname
p1694
V\u8346\u5dde
p1695
sVsub
p1696
(lp1697
(dp1698
Vname
p1699
V\u6c99
sa(dp1700
Vname
p1701
V\u8346\u5dde
p1702
sa(dp1703
Vname
p1704
V\u6d2a\u6e56
p1705
sa(dp1706
Vname
p1707
V\u77f3\u9996
p1708
sa(dp1709
Vname
p1710
V\u677e\u6ecb
p1711
sa(dp1712
Vname
p1713
V\u76d1\u5229
p1714
sa(dp1715
Vname
p1716
V\u516c\u5b89
p1717
sa(dp1718
Vname
p1719
V\u6c5f\u9675
p1720
sasa(dp1721
Vtype
p1722
I0
sVname
p1723
V\u5b9c\u660c
p1724
sVsub
p1725
(lp1726
(dp1727
Vname
p1728
V\u897f\u9675
p1729
sa(dp1730
Vname
p1731
V\u4f0d\u5bb6\u5c97
p1732
sa(dp1733
Vname
p1734
V\u70b9\u519b
p1735
sa(dp1736
Vname
p1737
V\u7307\u4ead
p1738
sa(dp1739
Vname
p1740
V\u5937\u9675
p1741
sa(dp1742
Vname
p1743
V\u5b9c\u90fd
p1744
sa(dp1745
Vname
p1746
V\u5f53\u9633
p1747
sa(dp1748
Vname
p1749
V\u679d\u6c5f
p1750
sa(dp1751
Vname
p1752
V\u79ed\u5f52
p1753
sa(dp1754
Vname
p1755
V\u8fdc\u5b89
p1756
sa(dp1757
Vname
p1758
V\u5174\u5c71
p1759
sa(dp1760
Vname
p1761
V\u4e94\u5cf0\u571f\u5bb6\u65cf\u81ea\u6cbb
p1762
sa(dp1763
Vname
p1764
V\u957f\u9633\u571f\u5bb6\u65cf\u81ea\u6cbb
p1765
sasa(dp1766
Vtype
p1767
I0
sVname
p1768
V\u8944\u6a0a
p1769
sVsub
p1770
(lp1771
(dp1772
Vname
p1773
V\u8944\u57ce
p1774
sa(dp1775
Vname
p1776
V\u6a0a\u57ce
p1777
sa(dp1778
Vname
p1779
V\u8944\u9633
p1780
sa(dp1781
Vname
p1782
V\u8001\u6cb3\u53e3
p1783
sa(dp1784
Vname
p1785
V\u67a3\u9633
p1786
sa(dp1787
Vname
p1788
V\u5b9c\u57ce
p1789
sa(dp1790
Vname
p1791
V\u5357\u6f33
p1792
sa(dp1793
Vname
p1794
V\u8c37\u57ce
p1795
sa(dp1796
Vname
p1797
V\u4fdd\u5eb7
p1798
sasa(dp1799
Vtype
p1800
I0
sVname
p1801
V\u9102\u5dde
p1802
sVsub
p1803
(lp1804
(dp1805
Vname
p1806
V\u9102\u57ce
p1807
sa(dp1808
Vname
p1809
V\u534e\u5bb9
p1810
sa(dp1811
Vname
p1812
V\u6881\u5b50\u6e56
p1813
sasa(dp1814
Vtype
p1815
I0
sVname
p1816
V\u8346\u95e8
p1817
sVsub
p1818
(lp1819
(dp1820
Vname
p1821
V\u4e1c\u5b9d
p1822
sa(dp1823
Vname
p1824
V\u6387\u5200
p1825
sa(dp1826
Vname
p1827
V\u949f\u7965
p1828
sa(dp1829
Vname
p1830
V\u4eac\u5c71
p1831
sa(dp1832
Vname
p1833
V\u6c99\u6d0b
p1834
sasa(dp1835
Vtype
p1836
I0
sVname
p1837
V\u5b5d\u611f
p1838
sVsub
p1839
(lp1840
(dp1841
Vname
p1842
V\u5b5d\u5357
p1843
sa(dp1844
Vname
p1845
V\u5e94\u57ce
p1846
sa(dp1847
Vname
p1848
V\u5b89\u9646
p1849
sa(dp1850
Vname
p1851
V\u6c49\u5ddd
p1852
sa(dp1853
Vname
p1854
V\u4e91\u68a6
p1855
sa(dp1856
Vname
p1857
V\u5927\u609f
p1858
sa(dp1859
Vname
p1860
V\u5b5d\u660c
p1861
sasa(dp1862
Vtype
p1863
I0
sVname
p1864
V\u9ec4\u5188
p1865
sVsub
p1866
(lp1867
(dp1868
Vname
p1869
V\u9ec4\u5dde
p1870
sa(dp1871
Vname
p1872
V\u9ebb\u57ce
p1873
sa(dp1874
Vname
p1875
V\u6b66\u7a74
p1876
sa(dp1877
Vname
p1878
V\u7ea2\u5b89
p1879
sa(dp1880
Vname
p1881
V\u7f57\u7530
p1882
sa(dp1883
Vname
p1884
V\u6d60\u6c34
p1885
sa(dp1886
Vname
p1887
V\u8572\u6625
p1888
sa(dp1889
Vname
p1890
V\u9ec4\u6885
p1891
sa(dp1892
Vname
p1893
V\u82f1\u5c71
p1894
sa(dp1895
Vname
p1896
V\u56e2\u98ce
p1897
sasa(dp1898
Vtype
p1899
I0
sVname
p1900
V\u54b8\u5b81
p1901
sVsub
p1902
(lp1903
(dp1904
Vname
p1905
V\u54b8\u5b89
p1906
sa(dp1907
Vname
p1908
V\u8d64\u58c1
p1909
sa(dp1910
Vname
p1911
V\u5609\u9c7c
p1912
sa(dp1913
Vname
p1914
V\u901a\u5c71
p1915
sa(dp1916
Vname
p1917
V\u5d07\u9633
p1918
sa(dp1919
Vname
p1920
V\u901a\u57ce
p1921
sasa(dp1922
Vtype
p1923
I0
sVname
p1924
V\u968f\u5dde
p1925
sVsub
p1926
(lp1927
(dp1928
Vname
p1929
V\u66fe\u90fd
p1930
sa(dp1931
Vname
p1932
V\u5e7f\u6c34
p1933
sasa(dp1934
Vtype
p1935
I0
sVname
p1936
V\u6069\u65bd\u571f\u5bb6\u65cf\u82d7\u65cf\u81ea\u6cbb\u5dde
p1937
sVsub
p1938
(lp1939
(dp1940
Vname
p1941
V\u6069\u65bd
p1942
sa(dp1943
Vname
p1944
V\u5229\u5ddd
p1945
sa(dp1946
Vname
p1947
V\u5efa\u59cb
p1948
sa(dp1949
Vname
p1950
V\u6765\u51e4
p1951
sa(dp1952
Vname
p1953
V\u5df4\u4e1c
p1954
sa(dp1955
Vname
p1956
V\u9e64\u5cf0
p1957
sa(dp1958
Vname
p1959
V\u5ba3\u6069
p1960
sa(dp1961
Vname
p1962
V\u54b8\u4e30
p1963
sasa(dp1964
Vtype
p1965
I0
sVname
p1966
V\u4ed9\u6843
p1967
sVsub
p1968
(lp1969
sa(dp1970
Vtype
p1971
I0
sVname
p1972
V\u5929\u95e8
p1973
sVsub
p1974
(lp1975
sa(dp1976
Vtype
p1977
I0
sVname
p1978
V\u6f5c\u6c5f
p1979
sVsub
p1980
(lp1981
sa(dp1982
Vtype
p1983
I0
sVname
p1984
V\u795e\u519c\u67b6\u6797
p1985
sVsub
p1986
(lp1987
sasa(dp1988
Vtype
p1989
I1
sVname
p1990
V\u56db\u5ddd
p1991
sVsub
p1992
(lp1993
(dp1994
Vtype
p1995
I0
sVname
p1996
V\u6210\u90fd
p1997
sVsub
p1998
(lp1999
(dp2000
Vname
p2001
V\u9752\u7f8a
p2002
sa(dp2003
Vname
p2004
V\u9526\u6c5f
p2005
sa(dp2006
Vname
p2007
V\u91d1\u725b
p2008
sa(dp2009
Vname
p2010
V\u6b66\u4faf
p2011
sa(dp2012
Vname
p2013
V\u6210\u534e
p2014
sa(dp2015
Vname
p2016
V\u9f99\u6cc9\u9a7f
p2017
sa(dp2018
Vname
p2019
V\u9752\u767d\u6c5f
p2020
sa(dp2021
Vname
p2022
V\u65b0\u90fd
p2023
sa(dp2024
Vname
p2025
V\u6e29\u6c5f
p2026
sa(dp2027
Vname
p2028
V\u90fd\u6c5f\u5830
p2029
sa(dp2030
Vname
p2031
V\u5f6d\u5dde
p2032
sa(dp2033
Vname
p2034
V\u909b\u5d03
p2035
sa(dp2036
Vname
p2037
V\u5d07\u5dde
p2038
sa(dp2039
Vname
p2040
V\u91d1\u5802
p2041
sa(dp2042
Vname
p2043
V\u90eb
sa(dp2044
Vname
p2045
V\u65b0\u6d25
p2046
sa(dp2047
Vname
p2048
V\u53cc\u6d41
p2049
sa(dp2050
Vname
p2051
V\u84b2\u6c5f
p2052
sa(dp2053
Vname
p2054
V\u5927\u9091
p2055
sasa(dp2056
Vtype
p2057
I0
sVname
p2058
V\u81ea\u8d21
p2059
sVsub
p2060
(lp2061
(dp2062
Vname
p2063
V\u5927\u5b89
p2064
sa(dp2065
Vname
p2066
V\u81ea\u6d41\u4e95
p2067
sa(dp2068
Vname
p2069
V\u8d21\u4e95
p2070
sa(dp2071
Vname
p2072
V\u6cbf\u6ee9
p2073
sa(dp2074
Vname
p2075
V\u8363
sa(dp2076
Vname
p2077
V\u5bcc\u987a
p2078
sasa(dp2079
Vtype
p2080
I0
sVname
p2081
V\u6500\u679d\u82b1
p2082
sVsub
p2083
(lp2084
(dp2085
Vname
p2086
V\u4ec1\u548c
p2087
sa(dp2088
Vname
p2089
V\u7c73\u6613
p2090
sa(dp2091
Vname
p2092
V\u76d0\u8fb9
p2093
sa(dp2094
Vname
p2095
V\u4e1c
sa(dp2096
Vname
p2097
V\u897f
sasa(dp2098
Vtype
p2099
I0
sVname
p2100
V\u6cf8\u5dde
p2101
sVsub
p2102
(lp2103
(dp2104
Vname
p2105
V\u6c5f\u9633
p2106
sa(dp2107
Vname
p2108
V\u7eb3\u6eaa
p2109
sa(dp2110
Vname
p2111
V\u9f99\u9a6c\u6f6d
p2112
sa(dp2113
Vname
p2114
V\u6cf8
sa(dp2115
Vname
p2116
V\u5408\u6c5f
p2117
sa(dp2118
Vname
p2119
V\u53d9\u6c38
p2120
sa(dp2121
Vname
p2122
V\u53e4\u853a
p2123
sasa(dp2124
Vtype
p2125
I0
sVname
p2126
V\u5fb7\u9633
p2127
sVsub
p2128
(lp2129
(dp2130
Vname
p2131
V\u65cc\u9633
p2132
sa(dp2133
Vname
p2134
V\u5e7f\u6c49
p2135
sa(dp2136
Vname
p2137
V\u4ec0\u90a1
p2138
sa(dp2139
Vname
p2140
V\u7ef5\u7af9
p2141
sa(dp2142
Vname
p2143
V\u7f57\u6c5f
p2144
sa(dp2145
Vname
p2146
V\u4e2d\u6c5f
p2147
sasa(dp2148
Vtype
p2149
I0
sVname
p2150
V\u7ef5\u9633
p2151
sVsub
p2152
(lp2153
(dp2154
Vname
p2155
V\u6daa\u57ce
p2156
sa(dp2157
Vname
p2158
V\u6e38\u4ed9
p2159
sa(dp2160
Vname
p2161
V\u6c5f\u6cb9
p2162
sa(dp2163
Vname
p2164
V\u76d0\u4ead
p2165
sa(dp2166
Vname
p2167
V\u4e09\u53f0
p2168
sa(dp2169
Vname
p2170
V\u5e73\u6b66
p2171
sa(dp2172
Vname
p2173
V\u5b89
sa(dp2174
Vname
p2175
V\u6893\u6f7c
p2176
sa(dp2177
Vname
p2178
V\u5317\u5ddd\u7f8c\u65cf\u81ea\u6cbb
p2179
sasa(dp2180
Vtype
p2181
I0
sVname
p2182
V\u5e7f\u5143
p2183
sVsub
p2184
(lp2185
(dp2186
Vname
p2187
V\u5143\u575d
p2188
sa(dp2189
Vname
p2190
V\u671d\u5929
p2191
sa(dp2192
Vname
p2193
V\u9752\u5ddd
p2194
sa(dp2195
Vname
p2196
V\u65fa\u82cd
p2197
sa(dp2198
Vname
p2199
V\u5251\u9601
p2200
sa(dp2201
Vname
p2202
V\u82cd\u6eaa
p2203
sa(dp2204
Vname
p2205
V\u4e2d
sasa(dp2206
Vtype
p2207
I0
sVname
p2208
V\u9042\u5b81
p2209
sVsub
p2210
(lp2211
(dp2212
Vname
p2213
V\u8239\u5c71
p2214
sa(dp2215
Vname
p2216
V\u5b89\u5c45
p2217
sa(dp2218
Vname
p2219
V\u5c04\u6d2a
p2220
sa(dp2221
Vname
p2222
V\u84ec\u6eaa
p2223
sa(dp2224
Vname
p2225
V\u5927\u82f1
p2226
sasa(dp2227
Vtype
p2228
I0
sVname
p2229
V\u5185\u6c5f
p2230
sVsub
p2231
(lp2232
(dp2233
Vname
p2234
V\u4e2d
sa(dp2235
Vname
p2236
V\u4e1c\u5174
p2237
sa(dp2238
Vname
p2239
V\u8d44\u4e2d
p2240
sa(dp2241
Vname
p2242
V\u9686\u660c
p2243
sa(dp2244
Vname
p2245
V\u5a01\u8fdc
p2246
sasa(dp2247
Vtype
p2248
I0
sVname
p2249
V\u4e50\u5c71
p2250
sVsub
p2251
(lp2252
(dp2253
Vname
p2254
V\u4e2d
sa(dp2255
Vname
p2256
V\u4e94\u901a\u6865
p2257
sa(dp2258
Vname
p2259
V\u6c99\u6e7e
p2260
sa(dp2261
Vname
p2262
V\u91d1\u53e3\u6cb3
p2263
sa(dp2264
Vname
p2265
V\u5ce8\u7709\u5c71
p2266
sa(dp2267
Vname
p2268
V\u5939\u6c5f
p2269
sa(dp2270
Vname
p2271
V\u4e95\u7814
p2272
sa(dp2273
Vname
p2274
V\u728d\u4e3a
p2275
sa(dp2276
Vname
p2277
V\u6c90\u5ddd
p2278
sa(dp2279
Vname
p2280
V\u9a6c\u8fb9\u5f5d\u65cf\u81ea\u6cbb
p2281
sa(dp2282
Vname
p2283
V\u5ce8\u8fb9\u5f5d\u65cf\u81ea\u6cbb
p2284
sasa(dp2285
Vtype
p2286
I0
sVname
p2287
V\u5357\u5145
p2288
sVsub
p2289
(lp2290
(dp2291
Vname
p2292
V\u987a\u5e86
p2293
sa(dp2294
Vname
p2295
V\u9ad8\u576a
p2296
sa(dp2297
Vname
p2298
V\u5609\u9675
p2299
sa(dp2300
Vname
p2301
V\u9606\u4e2d
p2302
sa(dp2303
Vname
p2304
V\u8425\u5c71
p2305
sa(dp2306
Vname
p2307
V\u84ec\u5b89
p2308
sa(dp2309
Vname
p2310
V\u4eea\u9647
p2311
sa(dp2312
Vname
p2313
V\u5357\u90e8
p2314
sa(dp2315
Vname
p2316
V\u897f\u5145
p2317
sasa(dp2318
Vtype
p2319
I0
sVname
p2320
V\u7709\u5c71
p2321
sVsub
p2322
(lp2323
(dp2324
Vname
p2325
V\u4e1c\u5761
p2326
sa(dp2327
Vname
p2328
V\u4ec1\u5bff
p2329
sa(dp2330
Vname
p2331
V\u5f6d\u5c71
p2332
sa(dp2333
Vname
p2334
V\u6d2a\u96c5
p2335
sa(dp2336
Vname
p2337
V\u4e39\u68f1
p2338
sa(dp2339
Vname
p2340
V\u9752\u795e
p2341
sasa(dp2342
Vtype
p2343
I0
sVname
p2344
V\u5b9c\u5bbe
p2345
sVsub
p2346
(lp2347
(dp2348
Vname
p2349
V\u7fe0\u5c4f
p2350
sa(dp2351
Vname
p2352
V\u5b9c\u5bbe
p2353
sa(dp2354
Vname
p2355
V\u5174\u6587
p2356
sa(dp2357
Vname
p2358
V\u5357\u6eaa
p2359
sa(dp2360
Vname
p2361
V\u73d9
sa(dp2362
Vname
p2363
V\u957f\u5b81
p2364
sa(dp2365
Vname
p2366
V\u9ad8
sa(dp2367
Vname
p2368
V\u6c5f\u5b89
p2369
sa(dp2370
Vname
p2371
V\u7b60\u8fde
p2372
sa(dp2373
Vname
p2374
V\u5c4f\u5c71
p2375
sasa(dp2376
Vtype
p2377
I0
sVname
p2378
V\u5e7f\u5b89
p2379
sVsub
p2380
(lp2381
(dp2382
Vname
p2383
V\u5e7f\u5b89
p2384
sa(dp2385
Vname
p2386
V\u534e\u84e5
p2387
sa(dp2388
Vname
p2389
V\u5cb3\u6c60
p2390
sa(dp2391
Vname
p2392
V\u90bb\u6c34
p2393
sa(dp2394
Vname
p2395
V\u6b66\u80dc
p2396
sasa(dp2397
Vtype
p2398
I0
sVname
p2399
V\u8fbe\u5dde
p2400
sVsub
p2401
(lp2402
(dp2403
Vname
p2404
V\u901a\u5ddd
p2405
sa(dp2406
Vname
p2407
V\u4e07\u6e90
p2408
sa(dp2409
Vname
p2410
V\u8fbe
sa(dp2411
Vname
p2412
V\u6e20
sa(dp2413
Vname
p2414
V\u5ba3\u6c49
p2415
sa(dp2416
Vname
p2417
V\u5f00\u6c5f
p2418
sa(dp2419
Vname
p2420
V\u5927\u7af9
p2421
sasa(dp2422
Vtype
p2423
I0
sVname
p2424
V\u96c5\u5b89
p2425
sVsub
p2426
(lp2427
(dp2428
Vname
p2429
V\u96e8\u57ce
p2430
sa(dp2431
Vname
p2432
V\u82a6\u5c71
p2433
sa(dp2434
Vname
p2435
V\u77f3\u68c9
p2436
sa(dp2437
Vname
p2438
V\u540d\u5c71
p2439
sa(dp2440
Vname
p2441
V\u5929\u5168
p2442
sa(dp2443
Vname
p2444
V\u8365\u7ecf
p2445
sa(dp2446
Vname
p2447
V\u5b9d\u5174
p2448
sa(dp2449
Vname
p2450
V\u6c49\u6e90
p2451
sasa(dp2452
Vtype
p2453
I0
sVname
p2454
V\u5df4\u4e2d
p2455
sVsub
p2456
(lp2457
(dp2458
Vname
p2459
V\u5df4\u5dde
p2460
sa(dp2461
Vname
p2462
V\u5357\u6c5f
p2463
sa(dp2464
Vname
p2465
V\u5e73\u660c
p2466
sa(dp2467
Vname
p2468
V\u901a\u6c5f
p2469
sasa(dp2470
Vtype
p2471
I0
sVname
p2472
V\u8d44\u9633
p2473
sVsub
p2474
(lp2475
(dp2476
Vname
p2477
V\u96c1\u6c5f
p2478
sa(dp2479
Vname
p2480
V\u7b80\u9633
p2481
sa(dp2482
Vname
p2483
V\u5b89\u5cb3
p2484
sa(dp2485
Vname
p2486
V\u4e50\u81f3
p2487
sasa(dp2488
Vtype
p2489
I0
sVname
p2490
V\u963f\u575d\u85cf\u65cf\u7f8c\u65cf\u81ea\u6cbb\u5dde
p2491
sVsub
p2492
(lp2493
(dp2494
Vname
p2495
V\u9a6c\u5c14\u5eb7
p2496
sa(dp2497
Vname
p2498
V\u4e5d\u5be8\u6c9f
p2499
sa(dp2500
Vname
p2501
V\u7ea2\u539f
p2502
sa(dp2503
Vname
p2504
V\u6c76\u5ddd
p2505
sa(dp2506
Vname
p2507
V\u963f\u575d
p2508
sa(dp2509
Vname
p2510
V\u7406
sa(dp2511
Vname
p2512
V\u82e5\u5c14\u76d6
p2513
sa(dp2514
Vname
p2515
V\u5c0f\u91d1
p2516
sa(dp2517
Vname
p2518
V\u9ed1\u6c34
p2519
sa(dp2520
Vname
p2521
V\u91d1\u5ddd
p2522
sa(dp2523
Vname
p2524
V\u677e\u6f58
p2525
sa(dp2526
Vname
p2527
V\u58e4\u5858
p2528
sa(dp2529
Vname
p2530
V\u8302
sasa(dp2531
Vtype
p2532
I0
sVname
p2533
V\u7518\u5b5c\u85cf\u65cf\u81ea\u6cbb\u5dde
p2534
sVsub
p2535
(lp2536
(dp2537
Vname
p2538
V\u5eb7\u5b9a
p2539
sa(dp2540
Vname
p2541
V\u4e39\u5df4
p2542
sa(dp2543
Vname
p2544
V\u7089\u970d
p2545
sa(dp2546
Vname
p2547
V\u4e5d\u9f99
p2548
sa(dp2549
Vname
p2550
V\u7518\u5b5c
p2551
sa(dp2552
Vname
p2553
V\u96c5\u6c5f
p2554
sa(dp2555
Vname
p2556
V\u65b0\u9f99
p2557
sa(dp2558
Vname
p2559
V\u9053\u5b5a
p2560
sa(dp2561
Vname
p2562
V\u767d\u7389
p2563
sa(dp2564
Vname
p2565
V\u7406\u5858
p2566
sa(dp2567
Vname
p2568
V\u5fb7\u683c
p2569
sa(dp2570
Vname
p2571
V\u4e61\u57ce
p2572
sa(dp2573
Vname
p2574
V\u77f3\u6e20
p2575
sa(dp2576
Vname
p2577
V\u7a3b\u57ce
p2578
sa(dp2579
Vname
p2580
V\u8272\u8fbe
p2581
sa(dp2582
Vname
p2583
V\u5df4\u5858
p2584
sa(dp2585
Vname
p2586
V\u6cf8\u5b9a
p2587
sa(dp2588
Vname
p2589
V\u5f97\u8363
p2590
sasa(dp2591
Vtype
p2592
I0
sVname
p2593
V\u51c9\u5c71\u5f5d\u65cf\u81ea\u6cbb\u5dde
p2594
sVsub
p2595
(lp2596
(dp2597
Vname
p2598
V\u897f\u660c
p2599
sa(dp2600
Vname
p2601
V\u7f8e\u59d1
p2602
sa(dp2603
Vname
p2604
V\u662d\u89c9
p2605
sa(dp2606
Vname
p2607
V\u91d1\u9633
p2608
sa(dp2609
Vname
p2610
V\u7518\u6d1b
p2611
sa(dp2612
Vname
p2613
V\u5e03\u62d6
p2614
sa(dp2615
Vname
p2616
V\u96f7\u6ce2
p2617
sa(dp2618
Vname
p2619
V\u666e\u683c
p2620
sa(dp2621
Vname
p2622
V\u5b81\u5357
p2623
sa(dp2624
Vname
p2625
V\u559c\u5fb7
p2626
sa(dp2627
Vname
p2628
V\u4f1a\u4e1c
p2629
sa(dp2630
Vname
p2631
V\u8d8a\u897f
p2632
sa(dp2633
Vname
p2634
V\u4f1a\u7406
p2635
sa(dp2636
Vname
p2637
V\u76d0\u6e90
p2638
sa(dp2639
Vname
p2640
V\u5fb7\u660c
p2641
sa(dp2642
Vname
p2643
V\u5195\u5b81
p2644
sa(dp2645
Vname
p2646
V\u6728\u91cc\u85cf\u65cf\u81ea\u6cbb
p2647
sasasa(dp2648
Vtype
p2649
I1
sVname
p2650
V\u9655\u897f
p2651
sVsub
p2652
(lp2653
(dp2654
Vtype
p2655
I0
sVname
p2656
V\u897f\u5b89
p2657
sVsub
p2658
(lp2659
(dp2660
Vname
p2661
V\u83b2\u6e56
p2662
sa(dp2663
Vname
p2664
V\u65b0\u57ce
p2665
sa(dp2666
Vname
p2667
V\u7891\u6797
p2668
sa(dp2669
Vname
p2670
V\u96c1\u5854
p2671
sa(dp2672
Vname
p2673
V\u705e\u6865
p2674
sa(dp2675
Vname
p2676
V\u672a\u592e
p2677
sa(dp2678
Vname
p2679
V\u960e\u826f
p2680
sa(dp2681
Vname
p2682
V\u4e34\u6f7c
p2683
sa(dp2684
Vname
p2685
V\u957f\u5b89
p2686
sa(dp2687
Vname
p2688
V\u9ad8\u9675
p2689
sa(dp2690
Vname
p2691
V\u84dd\u7530
p2692
sa(dp2693
Vname
p2694
V\u6237
sa(dp2695
Vname
p2696
V\u5468\u81f3
p2697
sasa(dp2698
Vtype
p2699
I0
sVname
p2700
V\u94dc\u5ddd
p2701
sVsub
p2702
(lp2703
(dp2704
Vname
p2705
V\u8000\u5dde
p2706
sa(dp2707
Vname
p2708
V\u738b\u76ca
p2709
sa(dp2710
Vname
p2711
V\u5370\u53f0
p2712
sa(dp2713
Vname
p2714
V\u5b9c\u541b
p2715
sasa(dp2716
Vtype
p2717
I0
sVname
p2718
V\u5b9d\u9e21
p2719
sVsub
p2720
(lp2721
(dp2722
Vname
p2723
V\u6e2d\u6ee8
p2724
sa(dp2725
Vname
p2726
V\u91d1\u53f0
p2727
sa(dp2728
Vname
p2729
V\u9648\u4ed3
p2730
sa(dp2731
Vname
p2732
V\u5c90\u5c71
p2733
sa(dp2734
Vname
p2735
V\u51e4\u7fd4
p2736
sa(dp2737
Vname
p2738
V\u9647
sa(dp2739
Vname
p2740
V\u592a\u767d
p2741
sa(dp2742
Vname
p2743
V\u9e9f\u6e38
p2744
sa(dp2745
Vname
p2746
V\u6276\u98ce
p2747
sa(dp2748
Vname
p2749
V\u5343\u9633
p2750
sa(dp2751
Vname
p2752
V\u7709
sa(dp2753
Vname
p2754
V\u51e4
sasa(dp2755
Vtype
p2756
I0
sVname
p2757
V\u54b8\u9633
p2758
sVsub
p2759
(lp2760
(dp2761
Vname
p2762
V\u79e6\u90fd
p2763
sa(dp2764
Vname
p2765
V\u6e2d\u57ce
p2766
sa(dp2767
Vname
p2768
V\u6768\u9675
p2769
sa(dp2770
Vname
p2771
V\u5174\u5e73
p2772
sa(dp2773
Vname
p2774
V\u793c\u6cc9
p2775
sa(dp2776
Vname
p2777
V\u6cfe\u9633
p2778
sa(dp2779
Vname
p2780
V\u6c38\u5bff
p2781
sa(dp2782
Vname
p2783
V\u4e09\u539f
p2784
sa(dp2785
Vname
p2786
V\u5f6c
sa(dp2787
Vname
p2788
V\u65ec\u9091
p2789
sa(dp2790
Vname
p2791
V\u957f\u6b66
p2792
sa(dp2793
Vname
p2794
V\u4e7e
sa(dp2795
Vname
p2796
V\u6b66\u529f
p2797
sa(dp2798
Vname
p2799
V\u6df3\u5316
p2800
sasa(dp2801
Vtype
p2802
I0
sVname
p2803
V\u6e2d\u5357
p2804
sVsub
p2805
(lp2806
(dp2807
Vname
p2808
V\u4e34\u6e2d
p2809
sa(dp2810
Vname
p2811
V\u97e9\u57ce
p2812
sa(dp2813
Vname
p2814
V\u534e\u9634
p2815
sa(dp2816
Vname
p2817
V\u84b2\u57ce
p2818
sa(dp2819
Vname
p2820
V\u6f7c\u5173
p2821
sa(dp2822
Vname
p2823
V\u767d\u6c34
p2824
sa(dp2825
Vname
p2826
V\u6f84\u57ce
p2827
sa(dp2828
Vname
p2829
V\u534e
sa(dp2830
Vname
p2831
V\u5408\u9633
p2832
sa(dp2833
Vname
p2834
V\u5bcc\u5e73
p2835
sa(dp2836
Vname
p2837
V\u5927\u8354
p2838
sasa(dp2839
Vtype
p2840
I0
sVname
p2841
V\u5ef6\u5b89
p2842
sVsub
p2843
(lp2844
(dp2845
Vname
p2846
V\u5b9d\u5854
p2847
sa(dp2848
Vname
p2849
V\u5b89\u585e
p2850
sa(dp2851
Vname
p2852
V\u6d1b\u5ddd
p2853
sa(dp2854
Vname
p2855
V\u5b50\u957f
p2856
sa(dp2857
Vname
p2858
V\u9ec4\u9675
p2859
sa(dp2860
Vname
p2861
V\u5ef6\u5ddd
p2862
sa(dp2863
Vname
p2864
V\u5bcc
sa(dp2865
Vname
p2866
V\u5ef6\u957f
p2867
sa(dp2868
Vname
p2869
V\u7518\u6cc9
p2870
sa(dp2871
Vname
p2872
V\u5b9c\u5ddd
p2873
sa(dp2874
Vname
p2875
V\u5fd7\u4e39
p2876
sa(dp2877
Vname
p2878
V\u9ec4\u9f99
p2879
sa(dp2880
Vname
p2881
V\u5434\u8d77
p2882
sasa(dp2883
Vtype
p2884
I0
sVname
p2885
V\u6c49\u4e2d
p2886
sVsub
p2887
(lp2888
(dp2889
Vname
p2890
V\u6c49\u53f0
p2891
sa(dp2892
Vname
p2893
V\u7559\u575d
p2894
sa(dp2895
Vname
p2896
V\u9547\u5df4
p2897
sa(dp2898
Vname
p2899
V\u57ce\u56fa
p2900
sa(dp2901
Vname
p2902
V\u5357\u90d1
p2903
sa(dp2904
Vname
p2905
V\u6d0b
sa(dp2906
Vname
p2907
V\u5b81\u5f3a
p2908
sa(dp2909
Vname
p2910
V\u4f5b\u576a
p2911
sa(dp2912
Vname
p2913
V\u52c9
sa(dp2914
Vname
p2915
V\u897f\u4e61
p2916
sa(dp2917
Vname
p2918
V\u7565\u9633
p2919
sasa(dp2920
Vtype
p2921
I0
sVname
p2922
V\u6986\u6797
p2923
sVsub
p2924
(lp2925
(dp2926
Vname
p2927
V\u6986\u9633
p2928
sa(dp2929
Vname
p2930
V\u6e05\u6da7
p2931
sa(dp2932
Vname
p2933
V\u7ee5\u5fb7
p2934
sa(dp2935
Vname
p2936
V\u795e\u6728
p2937
sa(dp2938
Vname
p2939
V\u4f73
sa(dp2940
Vname
p2941
V\u5e9c\u8c37
p2942
sa(dp2943
Vname
p2944
V\u5b50\u6d32
p2945
sa(dp2946
Vname
p2947
V\u9756\u8fb9
p2948
sa(dp2949
Vname
p2950
V\u6a2a\u5c71
p2951
sa(dp2952
Vname
p2953
V\u7c73\u8102
p2954
sa(dp2955
Vname
p2956
V\u5434\u5821
p2957
sa(dp2958
Vname
p2959
V\u5b9a\u8fb9
p2960
sasa(dp2961
Vtype
p2962
I0
sVname
p2963
V\u5b89\u5eb7
p2964
sVsub
p2965
(lp2966
(dp2967
Vname
p2968
V\u6c49\u6ee8
p2969
sa(dp2970
Vname
p2971
V\u7d2b\u9633
p2972
sa(dp2973
Vname
p2974
V\u5c9a\u768b
p2975
sa(dp2976
Vname
p2977
V\u65ec\u9633
p2978
sa(dp2979
Vname
p2980
V\u9547\u576a
p2981
sa(dp2982
Vname
p2983
V\u5e73\u5229
p2984
sa(dp2985
Vname
p2986
V\u77f3\u6cc9
p2987
sa(dp2988
Vname
p2989
V\u5b81\u9655
p2990
sa(dp2991
Vname
p2992
V\u767d\u6cb3
p2993
sa(dp2994
Vname
p2995
V\u6c49\u9634
p2996
sasa(dp2997
Vtype
p2998
I0
sVname
p2999
V\u5546\u6d1b
p3000
sVsub
p3001
(lp3002
(dp3003
Vname
p3004
V\u5546\u5dde
p3005
sa(dp3006
Vname
p3007
V\u9547\u5b89
p3008
sa(dp3009
Vname
p3010
V\u5c71\u9633
p3011
sa(dp3012
Vname
p3013
V\u6d1b\u5357
p3014
sa(dp3015
Vname
p3016
V\u5546\u5357
p3017
sa(dp3018
Vname
p3019
V\u4e39\u51e4
p3020
sa(dp3021
Vname
p3022
V\u67de\u6c34
p3023
sasasa(dp3024
Vtype
p3025
I1
sVname
p3026
V\u6cb3\u5317
p3027
sVsub
p3028
(lp3029
(dp3030
Vtype
p3031
I0
sVname
p3032
V\u77f3\u5bb6\u5e84
p3033
sVsub
p3034
(lp3035
(dp3036
Vname
p3037
V\u957f\u5b89
p3038
sa(dp3039
Vname
p3040
V\u6865\u4e1c
p3041
sa(dp3042
Vname
p3043
V\u6865\u897f
p3044
sa(dp3045
Vname
p3046
V\u65b0\u534e
p3047
sa(dp3048
Vname
p3049
V\u88d5\u534e
p3050
sa(dp3051
Vname
p3052
V\u4e95\u9649\u77ff
p3053
sa(dp3054
Vname
p3055
V\u9e7f\u6cc9
p3056
sa(dp3057
Vname
p3058
V\u8f9b\u96c6
p3059
sa(dp3060
Vname
p3061
V\u85c1\u57ce
p3062
sa(dp3063
Vname
p3064
V\u664b\u5dde
p3065
sa(dp3066
Vname
p3067
V\u65b0\u4e50
p3068
sa(dp3069
Vname
p3070
V\u6df1\u6cfd
p3071
sa(dp3072
Vname
p3073
V\u65e0\u6781
p3074
sa(dp3075
Vname
p3076
V\u8d75
sa(dp3077
Vname
p3078
V\u7075\u5bff
p3079
sa(dp3080
Vname
p3081
V\u9ad8\u9091
p3082
sa(dp3083
Vname
p3084
V\u5143\u6c0f
p3085
sa(dp3086
Vname
p3087
V\u8d5e\u7687
p3088
sa(dp3089
Vname
p3090
V\u5e73\u5c71
p3091
sa(dp3092
Vname
p3093
V\u4e95\u9649
p3094
sa(dp3095
Vname
p3096
V\u683e\u57ce
p3097
sa(dp3098
Vname
p3099
V\u6b63\u5b9a
p3100
sa(dp3101
Vname
p3102
V\u884c\u5510
p3103
sasa(dp3104
Vtype
p3105
I0
sVname
p3106
V\u5510\u5c71
p3107
sVsub
p3108
(lp3109
(dp3110
Vname
p3111
V\u8def\u5317
p3112
sa(dp3113
Vname
p3114
V\u8def\u5357
p3115
sa(dp3116
Vname
p3117
V\u53e4\u51b6
p3118
sa(dp3119
Vname
p3120
V\u5f00\u5e73
p3121
sa(dp3122
Vname
p3123
V\u4e30\u5357
p3124
sa(dp3125
Vname
p3126
V\u4e30\u6da6
p3127
sa(dp3128
Vname
p3129
V\u9075\u5316
p3130
sa(dp3131
Vname
p3132
V\u8fc1\u5b89
p3133
sa(dp3134
Vname
p3135
V\u8fc1\u897f
p3136
sa(dp3137
Vname
p3138
V\u6ee6\u5357
p3139
sa(dp3140
Vname
p3141
V\u7389\u7530
p3142
sa(dp3143
Vname
p3144
V\u5510\u6d77
p3145
sa(dp3146
Vname
p3147
V\u4e50\u4ead
p3148
sa(dp3149
Vname
p3150
V\u6ee6
sasa(dp3151
Vtype
p3152
I0
sVname
p3153
V\u79e6\u7687\u5c9b
p3154
sVsub
p3155
(lp3156
(dp3157
Vname
p3158
V\u6d77\u6e2f
p3159
sa(dp3160
Vname
p3161
V\u5c71\u6d77\u5173
p3162
sa(dp3163
Vname
p3164
V\u5317\u6234\u6cb3
p3165
sa(dp3166
Vname
p3167
V\u660c\u9ece
p3168
sa(dp3169
Vname
p3170
V\u629a\u5b81
p3171
sa(dp3172
Vname
p3173
V\u5362\u9f99
p3174
sa(dp3175
Vname
p3176
V\u9752\u9f99\u6ee1\u65cf\u81ea\u6cbb
p3177
sasa(dp3178
Vtype
p3179
I0
sVname
p3180
V\u90af\u90f8
p3181
sVsub
p3182
(lp3183
(dp3184
Vname
p3185
V\u90af\u5c71
p3186
sa(dp3187
Vname
p3188
V\u4e1b\u53f0
p3189
sa(dp3190
Vname
p3191
V\u590d\u5174
p3192
sa(dp3193
Vname
p3194
V\u5cf0\u5cf0\u77ff
p3195
sa(dp3196
Vname
p3197
V\u6b66\u5b89
p3198
sa(dp3199
Vname
p3200
V\u90b1
sa(dp3201
Vname
p3202
V\u5927\u540d
p3203
sa(dp3204
Vname
p3205
V\u9b4f
sa(dp3206
Vname
p3207
V\u66f2\u5468
p3208
sa(dp3209
Vname
p3210
V\u9e21\u6cfd
p3211
sa(dp3212
Vname
p3213
V\u80a5\u4e61
p3214
sa(dp3215
Vname
p3216
V\u5e7f\u5e73
p3217
sa(dp3218
Vname
p3219
V\u6210\u5b89
p3220
sa(dp3221
Vname
p3222
V\u4e34\u6f33
p3223
sa(dp3224
Vname
p3225
V\u78c1
sa(dp3226
Vname
p3227
V\u6d89
sa(dp3228
Vname
p3229
V\u6c38\u5e74
p3230
sa(dp3231
Vname
p3232
V\u9986\u9676
p3233
sa(dp3234
Vname
p3235
V\u90af\u90f8
p3236
sasa(dp3237
Vtype
p3238
I0
sVname
p3239
V\u90a2\u53f0
p3240
sVsub
p3241
(lp3242
(dp3243
Vname
p3244
V\u6865\u4e1c
p3245
sa(dp3246
Vname
p3247
V\u6865\u897f
p3248
sa(dp3249
Vname
p3250
V\u5357\u5bab
p3251
sa(dp3252
Vname
p3253
V\u6c99\u6cb3
p3254
sa(dp3255
Vname
p3256
V\u4e34\u57ce
p3257
sa(dp3258
Vname
p3259
V\u5185\u4e18
p3260
sa(dp3261
Vname
p3262
V\u67cf\u4e61
p3263
sa(dp3264
Vname
p3265
V\u9686\u5c27
p3266
sa(dp3267
Vname
p3268
V\u4efb
sa(dp3269
Vname
p3270
V\u5357\u548c
p3271
sa(dp3272
Vname
p3273
V\u5b81\u664b
p3274
sa(dp3275
Vname
p3276
V\u5de8\u9e7f
p3277
sa(dp3278
Vname
p3279
V\u65b0\u6cb3
p3280
sa(dp3281
Vname
p3282
V\u5e7f\u5b97
p3283
sa(dp3284
Vname
p3285
V\u5e73\u4e61
p3286
sa(dp3287
Vname
p3288
V\u5a01
sa(dp3289
Vname
p3290
V\u6e05\u6cb3
p3291
sa(dp3292
Vname
p3293
V\u4e34\u897f
p3294
sa(dp3295
Vname
p3296
V\u90a2\u53f0
p3297
sasa(dp3298
Vtype
p3299
I0
sVname
p3300
V\u4fdd\u5b9a
p3301
sVsub
p3302
(lp3303
(dp3304
Vname
p3305
V\u65b0
sa(dp3306
Vname
p3307
V\u5317
sa(dp3308
Vname
p3309
V\u5357
sa(dp3310
Vname
p3311
V\u5b9a\u5dde
p3312
sa(dp3313
Vname
p3314
V\u6dbf\u5dde
p3315
sa(dp3316
Vname
p3317
V\u5b89\u56fd
p3318
sa(dp3319
Vname
p3320
V\u9ad8\u7891\u5e97
p3321
sa(dp3322
Vname
p3323
V\u6613
sa(dp3324
Vname
p3325
V\u5f90\u6c34
p3326
sa(dp3327
Vname
p3328
V\u6d9e\u6e90
p3329
sa(dp3330
Vname
p3331
V\u987a\u5e73
p3332
sa(dp3333
Vname
p3334
V\u5510
sa(dp3335
Vname
p3336
V\u671b\u90fd
p3337
sa(dp3338
Vname
p3339
V\u6d9e\u6c34
p3340
sa(dp3341
Vname
p3342
V\u9ad8\u9633
p3343
sa(dp3344
Vname
p3345
V\u5b89\u65b0
p3346
sa(dp3347
Vname
p3348
V\u96c4
sa(dp3349
Vname
p3350
V\u5bb9\u57ce
p3351
sa(dp3352
Vname
p3353
V\u8821
sa(dp3354
Vname
p3355
V\u66f2\u9633
p3356
sa(dp3357
Vname
p3358
V\u961c\u5e73
p3359
sa(dp3360
Vname
p3361
V\u535a\u91ce
p3362
sa(dp3363
Vname
p3364
V\u6ee1\u57ce
p3365
sa(dp3366
Vname
p3367
V\u6e05\u82d1
p3368
sa(dp3369
Vname
p3370
V\u5b9a\u5174
p3371
sasa(dp3372
Vtype
p3373
I0
sVname
p3374
V\u5f20\u5bb6\u53e3
p3375
sVsub
p3376
(lp3377
(dp3378
Vname
p3379
V\u6865\u4e1c
p3380
sa(dp3381
Vname
p3382
V\u6865\u897f
p3383
sa(dp3384
Vname
p3385
V\u5ba3\u5316
p3386
sa(dp3387
Vname
p3388
V\u4e0b\u82b1\u56ed
p3389
sa(dp3390
Vname
p3391
V\u5f20\u5317
p3392
sa(dp3393
Vname
p3394
V\u5eb7\u4fdd
p3395
sa(dp3396
Vname
p3397
V\u6cbd\u6e90
p3398
sa(dp3399
Vname
p3400
V\u5c1a\u4e49
p3401
sa(dp3402
Vname
p3403
V\u851a
sa(dp3404
Vname
p3405
V\u9633\u539f
p3406
sa(dp3407
Vname
p3408
V\u6000\u5b89
p3409
sa(dp3410
Vname
p3411
V\u4e07\u5168
p3412
sa(dp3413
Vname
p3414
V\u6000\u6765
p3415
sa(dp3416
Vname
p3417
V\u8d64\u57ce
p3418
sa(dp3419
Vname
p3420
V\u5d07\u793c
p3421
sa(dp3422
Vname
p3423
V\u5ba3\u5316
p3424
sa(dp3425
Vname
p3426
V\u6dbf\u9e7f
p3427
sasa(dp3428
Vtype
p3429
I0
sVname
p3430
V\u627f\u5fb7
p3431
sVsub
p3432
(lp3433
(dp3434
Vname
p3435
V\u53cc\u6865
p3436
sa(dp3437
Vname
p3438
V\u53cc\u6ee6
p3439
sa(dp3440
Vname
p3441
V\u9e70\u624b\u8425\u5b50\u77ff
p3442
sa(dp3443
Vname
p3444
V\u5174\u9686
p3445
sa(dp3446
Vname
p3447
V\u5e73\u6cc9
p3448
sa(dp3449
Vname
p3450
V\u6ee6\u5e73
p3451
sa(dp3452
Vname
p3453
V\u9686\u5316
p3454
sa(dp3455
Vname
p3456
V\u627f\u5fb7
p3457
sa(dp3458
Vname
p3459
V\u4e30\u5b81\u6ee1\u65cf\u81ea\u6cbb
p3460
sa(dp3461
Vname
p3462
V\u5bbd\u57ce\u6ee1\u65cf\u81ea\u6cbb
p3463
sa(dp3464
Vname
p3465
V\u56f4\u573a\u6ee1\u65cf\u8499\u53e4\u65cf\u81ea\u6cbb
p3466
sasa(dp3467
Vtype
p3468
I0
sVname
p3469
V\u6ca7\u5dde
p3470
sVsub
p3471
(lp3472
(dp3473
Vname
p3474
V\u65b0\u534e
p3475
sa(dp3476
Vname
p3477
V\u8fd0\u6cb3
p3478
sa(dp3479
Vname
p3480
V\u6cca\u5934
p3481
sa(dp3482
Vname
p3483
V\u4efb\u4e18
p3484
sa(dp3485
Vname
p3486
V\u9ec4\u9a85
p3487
sa(dp3488
Vname
p3489
V\u6cb3\u95f4
p3490
sa(dp3491
Vname
p3492
V\u732e
sa(dp3493
Vname
p3494
V\u5434\u6865
p3495
sa(dp3496
Vname
p3497
V\u6ca7
sa(dp3498
Vname
p3499
V\u4e1c\u5149
p3500
sa(dp3501
Vname
p3502
V\u8083\u5b81
p3503
sa(dp3504
Vname
p3505
V\u5357\u76ae
p3506
sa(dp3507
Vname
p3508
V\u76d0\u5c71
p3509
sa(dp3510
Vname
p3511
V\u9752
sa(dp3512
Vname
p3513
V\u6d77\u5174
p3514
sa(dp3515
Vname
p3516
V\u5b5f\u6751\u56de\u65cf\u81ea\u6cbb
p3517
sasa(dp3518
Vtype
p3519
I0
sVname
p3520
V\u5eca\u574a
p3521
sVsub
p3522
(lp3523
(dp3524
Vname
p3525
V\u5b89\u6b21
p3526
sa(dp3527
Vname
p3528
V\u5e7f\u9633
p3529
sa(dp3530
Vname
p3531
V\u9738\u5dde
p3532
sa(dp3533
Vname
p3534
V\u4e09\u6cb3
p3535
sa(dp3536
Vname
p3537
V\u9999\u6cb3
p3538
sa(dp3539
Vname
p3540
V\u6c38\u6e05
p3541
sa(dp3542
Vname
p3543
V\u56fa\u5b89
p3544
sa(dp3545
Vname
p3546
V\u6587\u5b89
p3547
sa(dp3548
Vname
p3549
V\u5927\u57ce
p3550
sa(dp3551
Vname
p3552
V\u5927\u5382\u56de\u65cf\u81ea\u6cbb
p3553
sasa(dp3554
Vtype
p3555
I0
sVname
p3556
V\u8861\u6c34
p3557
sVsub
p3558
(lp3559
(dp3560
Vname
p3561
V\u6843\u57ce
p3562
sa(dp3563
Vname
p3564
V\u5180\u5dde
p3565
sa(dp3566
Vname
p3567
V\u6df1\u5dde
p3568
sa(dp3569
Vname
p3570
V\u67a3\u5f3a
p3571
sa(dp3572
Vname
p3573
V\u6b66\u9091
p3574
sa(dp3575
Vname
p3576
V\u6b66\u5f3a
p3577
sa(dp3578
Vname
p3579
V\u9976\u9633
p3580
sa(dp3581
Vname
p3582
V\u5b89\u5e73
p3583
sa(dp3584
Vname
p3585
V\u6545\u57ce
p3586
sa(dp3587
Vname
p3588
V\u666f
sa(dp3589
Vname
p3590
V\u961c\u57ce
p3591
sasasa(dp3592
Vtype
p3593
I1
sVname
p3594
V\u5c71\u897f
p3595
sVsub
p3596
(lp3597
(dp3598
Vtype
p3599
I0
sVname
p3600
V\u592a\u539f
p3601
sVsub
p3602
(lp3603
(dp3604
Vname
p3605
V\u674f\u82b1\u5cad
p3606
sa(dp3607
Vname
p3608
V\u5c0f\u5e97
p3609
sa(dp3610
Vname
p3611
V\u8fce\u6cfd
p3612
sa(dp3613
Vname
p3614
V\u5c16\u8349\u576a
p3615
sa(dp3616
Vname
p3617
V\u4e07\u67cf\u6797
p3618
sa(dp3619
Vname
p3620
V\u664b\u6e90
p3621
sa(dp3622
Vname
p3623
V\u53e4\u4ea4
p3624
sa(dp3625
Vname
p3626
V\u9633\u66f2
p3627
sa(dp3628
Vname
p3629
V\u6e05\u5f90
p3630
sa(dp3631
Vname
p3632
V\u5a04\u70e6
p3633
sasa(dp3634
Vtype
p3635
I0
sVname
p3636
V\u5927\u540c
p3637
sVsub
p3638
(lp3639
(dp3640
Vname
p3641
V\u57ce
sa(dp3642
Vname
p3643
V\u77ff
sa(dp3644
Vname
p3645
V\u5357\u90ca
p3646
sa(dp3647
Vname
p3648
V\u65b0\u8363
p3649
sa(dp3650
Vname
p3651
V\u5927\u540c
p3652
sa(dp3653
Vname
p3654
V\u5929\u9547
p3655
sa(dp3656
Vname
p3657
V\u7075\u4e18
p3658
sa(dp3659
Vname
p3660
V\u9633\u9ad8
p3661
sa(dp3662
Vname
p3663
V\u5de6\u4e91
p3664
sa(dp3665
Vname
p3666
V\u5e7f\u7075
p3667
sa(dp3668
Vname
p3669
V\u6d51\u6e90
p3670
sasa(dp3671
Vtype
p3672
I0
sVname
p3673
V\u9633\u6cc9
p3674
sVsub
p3675
(lp3676
(dp3677
Vname
p3678
V\u57ce
sa(dp3679
Vname
p3680
V\u77ff
sa(dp3681
Vname
p3682
V\u90ca
sa(dp3683
Vname
p3684
V\u5e73\u5b9a
p3685
sa(dp3686
Vname
p3687
V\u76c2
sasa(dp3688
Vtype
p3689
I0
sVname
p3690
V\u957f\u6cbb
p3691
sVsub
p3692
(lp3693
(dp3694
Vname
p3695
V\u57ce
sa(dp3696
Vname
p3697
V\u90ca
sa(dp3698
Vname
p3699
V\u6f5e\u57ce
p3700
sa(dp3701
Vname
p3702
V\u957f\u6cbb
p3703
sa(dp3704
Vname
p3705
V\u957f\u5b50
p3706
sa(dp3707
Vname
p3708
V\u5e73\u987a
p3709
sa(dp3710
Vname
p3711
V\u8944\u57a3
p3712
sa(dp3713
Vname
p3714
V\u6c81\u6e90
p3715
sa(dp3716
Vname
p3717
V\u5c6f\u7559
p3718
sa(dp3719
Vname
p3720
V\u9ece\u57ce
p3721
sa(dp3722
Vname
p3723
V\u6b66\u4e61
p3724
sa(dp3725
Vname
p3726
V\u6c81
sa(dp3727
Vname
p3728
V\u58f6\u5173
p3729
sasa(dp3730
Vtype
p3731
I0
sVname
p3732
V\u664b\u57ce
p3733
sVsub
p3734
(lp3735
(dp3736
Vname
p3737
V\u57ce
sa(dp3738
Vname
p3739
V\u9ad8\u5e73
p3740
sa(dp3741
Vname
p3742
V\u6cfd\u5dde
p3743
sa(dp3744
Vname
p3745
V\u9675\u5ddd
p3746
sa(dp3747
Vname
p3748
V\u9633\u57ce
p3749
sa(dp3750
Vname
p3751
V\u6c81\u6c34
p3752
sasa(dp3753
Vtype
p3754
I0
sVname
p3755
V\u6714\u5dde
p3756
sVsub
p3757
(lp3758
(dp3759
Vname
p3760
V\u6714\u57ce
p3761
sa(dp3762
Vname
p3763
V\u5e73\u9c81
p3764
sa(dp3765
Vname
p3766
V\u5c71\u9634
p3767
sa(dp3768
Vname
p3769
V\u53f3\u7389
p3770
sa(dp3771
Vname
p3772
V\u5e94
sa(dp3773
Vname
p3774
V\u6000\u4ec1
p3775
sasa(dp3776
Vtype
p3777
I0
sVname
p3778
V\u664b\u4e2d
p3779
sVsub
p3780
(lp3781
(dp3782
Vname
p3783
V\u6986\u6b21
p3784
sa(dp3785
Vname
p3786
V\u4ecb\u4f11
p3787
sa(dp3788
Vname
p3789
V\u6614\u9633
p3790
sa(dp3791
Vname
p3792
V\u7075\u77f3
p3793
sa(dp3794
Vname
p3795
V\u7941
sa(dp3796
Vname
p3797
V\u5de6\u6743
p3798
sa(dp3799
Vname
p3800
V\u5bff\u9633
p3801
sa(dp3802
Vname
p3803
V\u592a\u8c37
p3804
sa(dp3805
Vname
p3806
V\u548c\u987a
p3807
sa(dp3808
Vname
p3809
V\u5e73\u9065
p3810
sa(dp3811
Vname
p3812
V\u6986\u793e
p3813
sasa(dp3814
Vtype
p3815
I0
sVname
p3816
V\u8fd0\u57ce
p3817
sVsub
p3818
(lp3819
(dp3820
Vname
p3821
V\u76d0\u6e56
p3822
sa(dp3823
Vname
p3824
V\u6cb3\u6d25
p3825
sa(dp3826
Vname
p3827
V\u6c38\u6d4e
p3828
sa(dp3829
Vname
p3830
V\u95fb\u559c
p3831
sa(dp3832
Vname
p3833
V\u65b0\u7edb
p3834
sa(dp3835
Vname
p3836
V\u5e73\u9646
p3837
sa(dp3838
Vname
p3839
V\u57a3\u66f2
p3840
sa(dp3841
Vname
p3842
V\u7edb
sa(dp3843
Vname
p3844
V\u7a37\u5c71
p3845
sa(dp3846
Vname
p3847
V\u82ae\u57ce
p3848
sa(dp3849
Vname
p3850
V\u590f
sa(dp3851
Vname
p3852
V\u4e07\u8363
p3853
sa(dp3854
Vname
p3855
V\u4e34\u7317
p3856
sasa(dp3857
Vtype
p3858
I0
sVname
p3859
V\u5ffb\u5dde
p3860
sVsub
p3861
(lp3862
(dp3863
Vname
p3864
V\u5ffb\u5e9c
p3865
sa(dp3866
Vname
p3867
V\u539f\u5e73
p3868
sa(dp3869
Vname
p3870
V\u4ee3
sa(dp3871
Vname
p3872
V\u795e\u6c60
p3873
sa(dp3874
Vname
p3875
V\u4e94\u5be8
p3876
sa(dp3877
Vname
p3878
V\u4e94\u53f0
p3879
sa(dp3880
Vname
p3881
V\u504f\u5173
p3882
sa(dp3883
Vname
p3884
V\u5b81\u6b66
p3885
sa(dp3886
Vname
p3887
V\u9759\u4e50
p3888
sa(dp3889
Vname
p3890
V\u7e41\u5cd9
p3891
sa(dp3892
Vname
p3893
V\u6cb3\u66f2
p3894
sa(dp3895
Vname
p3896
V\u4fdd\u5fb7
p3897
sa(dp3898
Vname
p3899
V\u5b9a\u8944
p3900
sa(dp3901
Vname
p3902
V\u5ca2\u5c9a
p3903
sasa(dp3904
Vtype
p3905
I0
sVname
p3906
V\u4e34\u6c7e
p3907
sVsub
p3908
(lp3909
(dp3910
Vname
p3911
V\u5c27\u90fd
p3912
sa(dp3913
Vname
p3914
V\u4faf\u9a6c
p3915
sa(dp3916
Vname
p3917
V\u970d\u5dde
p3918
sa(dp3919
Vname
p3920
V\u6c7e\u897f
p3921
sa(dp3922
Vname
p3923
V\u5409
sa(dp3924
Vname
p3925
V\u5b89\u6cfd
p3926
sa(dp3927
Vname
p3928
V\u5927\u5b81
p3929
sa(dp3930
Vname
p3931
V\u6d6e\u5c71
p3932
sa(dp3933
Vname
p3934
V\u53e4
sa(dp3935
Vname
p3936
V\u96b0
sa(dp3937
Vname
p3938
V\u8944\u6c7e
p3939
sa(dp3940
Vname
p3941
V\u7ffc\u57ce
p3942
sa(dp3943
Vname
p3944
V\u6c38\u548c
p3945
sa(dp3946
Vname
p3947
V\u4e61\u5b81
p3948
sa(dp3949
Vname
p3950
V\u66f2\u6c83
p3951
sa(dp3952
Vname
p3953
V\u6d2a\u6d1e
p3954
sa(dp3955
Vname
p3956
V\u84b2
sasa(dp3957
Vtype
p3958
I0
sVname
p3959
V\u5415\u6881
p3960
sVsub
p3961
(lp3962
(dp3963
Vname
p3964
V\u79bb\u77f3
p3965
sa(dp3966
Vname
p3967
V\u5b5d\u4e49
p3968
sa(dp3969
Vname
p3970
V\u6c7e\u9633
p3971
sa(dp3972
Vname
p3973
V\u6587\u6c34
p3974
sa(dp3975
Vname
p3976
V\u4e2d\u9633
p3977
sa(dp3978
Vname
p3979
V\u5174
sa(dp3980
Vname
p3981
V\u4e34
sa(dp3982
Vname
p3983
V\u65b9\u5c71
p3984
sa(dp3985
Vname
p3986
V\u67f3\u6797
p3987
sa(dp3988
Vname
p3989
V\u5c9a
sa(dp3990
Vname
p3991
V\u4ea4\u53e3
p3992
sa(dp3993
Vname
p3994
V\u4ea4\u57ce
p3995
sa(dp3996
Vname
p3997
V\u77f3\u697c
p3998
sasasa(dp3999
Vtype
p4000
I1
sVname
p4001
V\u6cb3\u5357
p4002
sVsub
p4003
(lp4004
(dp4005
Vtype
p4006
I0
sVname
p4007
V\u90d1\u5dde
p4008
sVsub
p4009
(lp4010
(dp4011
Vname
p4012
V\u4e2d\u539f
p4013
sa(dp4014
Vname
p4015
V\u91d1\u6c34
p4016
sa(dp4017
Vname
p4018
V\u4e8c\u4e03
p4019
sa(dp4020
Vname
p4021
V\u7ba1\u57ce\u56de\u65cf
p4022
sa(dp4023
Vname
p4024
V\u4e0a\u8857
p4025
sa(dp4026
Vname
p4027
V\u60e0\u6d4e
p4028
sa(dp4029
Vname
p4030
V\u5de9\u4e49
p4031
sa(dp4032
Vname
p4033
V\u65b0\u90d1
p4034
sa(dp4035
Vname
p4036
V\u65b0\u5bc6
p4037
sa(dp4038
Vname
p4039
V\u767b\u5c01
p4040
sa(dp4041
Vname
p4042
V\u8365\u9633
p4043
sa(dp4044
Vname
p4045
V\u4e2d\u725f
p4046
sasa(dp4047
Vtype
p4048
I0
sVname
p4049
V\u5f00\u5c01
p4050
sVsub
p4051
(lp4052
(dp4053
Vname
p4054
V\u9f13\u697c
p4055
sa(dp4056
Vname
p4057
V\u9f99\u4ead
p4058
sa(dp4059
Vname
p4060
V\u987a\u6cb3\u56de\u65cf
p4061
sa(dp4062
Vname
p4063
V\u79b9\u738b\u53f0
p4064
sa(dp4065
Vname
p4066
V\u91d1\u660e
p4067
sa(dp4068
Vname
p4069
V\u5f00\u5c01
p4070
sa(dp4071
Vname
p4072
V\u5c09\u6c0f
p4073
sa(dp4074
Vname
p4075
V\u5170\u8003
p4076
sa(dp4077
Vname
p4078
V\u675e
sa(dp4079
Vname
p4080
V\u901a\u8bb8
p4081
sasa(dp4082
Vtype
p4083
I0
sVname
p4084
V\u6d1b\u9633
p4085
sVsub
p4086
(lp4087
(dp4088
Vname
p4089
V\u897f\u5de5
p4090
sa(dp4091
Vname
p4092
V\u8001\u57ce
p4093
sa(dp4094
Vname
p4095
V\u6da7\u897f
p4096
sa(dp4097
Vname
p4098
V\u700d\u6cb3\u56de\u65cf
p4099
sa(dp4100
Vname
p4101
V\u6d1b\u9f99
p4102
sa(dp4103
Vname
p4104
V\u5409\u5229
p4105
sa(dp4106
Vname
p4107
V\u5043\u5e08
p4108
sa(dp4109
Vname
p4110
V\u5b5f\u6d25
p4111
sa(dp4112
Vname
p4113
V\u6c5d\u9633
p4114
sa(dp4115
Vname
p4116
V\u4f0a\u5ddd
p4117
sa(dp4118
Vname
p4119
V\u6d1b\u5b81
p4120
sa(dp4121
Vname
p4122
V\u5d69
sa(dp4123
Vname
p4124
V\u5b9c\u9633
p4125
sa(dp4126
Vname
p4127
V\u65b0\u5b89
p4128
sa(dp4129
Vname
p4130
V\u683e\u5ddd
p4131
sasa(dp4132
Vtype
p4133
I0
sVname
p4134
V\u5e73\u9876\u5c71
p4135
sVsub
p4136
(lp4137
(dp4138
Vname
p4139
V\u65b0\u534e
p4140
sa(dp4141
Vname
p4142
V\u536b\u4e1c
p4143
sa(dp4144
Vname
p4145
V\u6e5b\u6cb3
p4146
sa(dp4147
Vname
p4148
V\u77f3\u9f99
p4149
sa(dp4150
Vname
p4151
V\u6c5d\u5dde
p4152
sa(dp4153
Vname
p4154
V\u821e\u94a2
p4155
sa(dp4156
Vname
p4157
V\u5b9d\u4e30
p4158
sa(dp4159
Vname
p4160
V\u53f6
sa(dp4161
Vname
p4162
V\u90cf
sa(dp4163
Vname
p4164
V\u9c81\u5c71
p4165
sasa(dp4166
Vtype
p4167
I0
sVname
p4168
V\u5b89\u9633
p4169
sVsub
p4170
(lp4171
(dp4172
Vname
p4173
V\u5317\u5173
p4174
sa(dp4175
Vname
p4176
V\u6587\u5cf0
p4177
sa(dp4178
Vname
p4179
V\u6bb7\u90fd
p4180
sa(dp4181
Vname
p4182
V\u9f99\u5b89
p4183
sa(dp4184
Vname
p4185
V\u6797\u5dde
p4186
sa(dp4187
Vname
p4188
V\u5b89\u9633
p4189
sa(dp4190
Vname
p4191
V\u6ed1
sa(dp4192
Vname
p4193
V\u5185\u9ec4
p4194
sa(dp4195
Vname
p4196
V\u6c64\u9634
p4197
sasa(dp4198
Vtype
p4199
I0
sVname
p4200
V\u9e64\u58c1
p4201
sVsub
p4202
(lp4203
(dp4204
Vname
p4205
V\u6dc7\u6ee8
p4206
sa(dp4207
Vname
p4208
V\u5c71\u57ce
p4209
sa(dp4210
Vname
p4211
V\u9e64\u5c71
p4212
sa(dp4213
Vname
p4214
V\u6d5a
sa(dp4215
Vname
p4216
V\u6dc7
sasa(dp4217
Vtype
p4218
I0
sVname
p4219
V\u65b0\u4e61
p4220
sVsub
p4221
(lp4222
(dp4223
Vname
p4224
V\u536b\u6ee8
p4225
sa(dp4226
Vname
p4227
V\u7ea2\u65d7
p4228
sa(dp4229
Vname
p4230
V\u51e4\u6cc9
p4231
sa(dp4232
Vname
p4233
V\u7267\u91ce
p4234
sa(dp4235
Vname
p4236
V\u536b\u8f89
p4237
sa(dp4238
Vname
p4239
V\u8f89
sa(dp4240
Vname
p4241
V\u65b0\u4e61
p4242
sa(dp4243
Vname
p4244
V\u83b7\u5609
p4245
sa(dp4246
Vname
p4247
V\u539f\u9633
p4248
sa(dp4249
Vname
p4250
V\u957f\u57a3
p4251
sa(dp4252
Vname
p4253
V\u5c01\u4e18
p4254
sa(dp4255
Vname
p4256
V\u5ef6\u6d25
p4257
sasa(dp4258
Vtype
p4259
I0
sVname
p4260
V\u7126\u4f5c
p4261
sVsub
p4262
(lp4263
(dp4264
Vname
p4265
V\u89e3\u653e
p4266
sa(dp4267
Vname
p4268
V\u4e2d\u7ad9
p4269
sa(dp4270
Vname
p4271
V\u9a6c\u6751
p4272
sa(dp4273
Vname
p4274
V\u5c71\u9633
p4275
sa(dp4276
Vname
p4277
V\u6c81\u9633
p4278
sa(dp4279
Vname
p4280
V\u5b5f\u5dde
p4281
sa(dp4282
Vname
p4283
V\u4fee\u6b66
p4284
sa(dp4285
Vname
p4286
V\u6e29
sa(dp4287
Vname
p4288
V\u6b66\u965f
p4289
sa(dp4290
Vname
p4291
V\u535a\u7231
p4292
sasa(dp4293
Vtype
p4294
I0
sVname
p4295
V\u6fee\u9633
p4296
sVsub
p4297
(lp4298
(dp4299
Vname
p4300
V\u534e\u9f99
p4301
sa(dp4302
Vname
p4303
V\u6fee\u9633
p4304
sa(dp4305
Vname
p4306
V\u5357\u4e50
p4307
sa(dp4308
Vname
p4309
V\u53f0\u524d
p4310
sa(dp4311
Vname
p4312
V\u6e05\u4e30
p4313
sa(dp4314
Vname
p4315
V\u8303
sasa(dp4316
Vtype
p4317
I0
sVname
p4318
V\u8bb8\u660c
p4319
sVsub
p4320
(lp4321
(dp4322
Vname
p4323
V\u9b4f\u90fd
p4324
sa(dp4325
Vname
p4326
V\u79b9\u5dde
p4327
sa(dp4328
Vname
p4329
V\u957f\u845b
p4330
sa(dp4331
Vname
p4332
V\u8bb8\u660c
p4333
sa(dp4334
Vname
p4335
V\u9122\u9675
p4336
sa(dp4337
Vname
p4338
V\u8944\u57ce
p4339
sasa(dp4340
Vtype
p4341
I0
sVname
p4342
V\u6f2f\u6cb3
p4343
sVsub
p4344
(lp4345
(dp4346
Vname
p4347
V\u6e90\u6c47
p4348
sa(dp4349
Vname
p4350
V\u90fe\u57ce
p4351
sa(dp4352
Vname
p4353
V\u53ec\u9675
p4354
sa(dp4355
Vname
p4356
V\u4e34\u988d
p4357
sa(dp4358
Vname
p4359
V\u821e\u9633
p4360
sasa(dp4361
Vtype
p4362
I0
sVname
p4363
V\u4e09\u95e8\u5ce1
p4364
sVsub
p4365
(lp4366
(dp4367
Vname
p4368
V\u6e56\u6ee8
p4369
sa(dp4370
Vname
p4371
V\u4e49\u9a6c
p4372
sa(dp4373
Vname
p4374
V\u7075\u5b9d
p4375
sa(dp4376
Vname
p4377
V\u6e11\u6c60
p4378
sa(dp4379
Vname
p4380
V\u5362\u6c0f
p4381
sa(dp4382
Vname
p4383
V\u9655
sasa(dp4384
Vtype
p4385
I0
sVname
p4386
V\u5357\u9633
p4387
sVsub
p4388
(lp4389
(dp4390
Vname
p4391
V\u5367\u9f99
p4392
sa(dp4393
Vname
p4394
V\u5b9b\u57ce
p4395
sa(dp4396
Vname
p4397
V\u9093\u5dde
p4398
sa(dp4399
Vname
p4400
V\u6850\u67cf
p4401
sa(dp4402
Vname
p4403
V\u65b9\u57ce
p4404
sa(dp4405
Vname
p4406
V\u6dc5\u5ddd
p4407
sa(dp4408
Vname
p4409
V\u9547\u5e73
p4410
sa(dp4411
Vname
p4412
V\u5510\u6cb3
p4413
sa(dp4414
Vname
p4415
V\u5357\u53ec
p4416
sa(dp4417
Vname
p4418
V\u5185\u4e61
p4419
sa(dp4420
Vname
p4421
V\u65b0\u91ce
p4422
sa(dp4423
Vname
p4424
V\u793e\u65d7
p4425
sa(dp4426
Vname
p4427
V\u897f\u5ce1
p4428
sasa(dp4429
Vtype
p4430
I0
sVname
p4431
V\u5546\u4e18
p4432
sVsub
p4433
(lp4434
(dp4435
Vname
p4436
V\u6881\u56ed
p4437
sa(dp4438
Vname
p4439
V\u7762\u9633
p4440
sa(dp4441
Vname
p4442
V\u6c38\u57ce
p4443
sa(dp4444
Vname
p4445
V\u5b81\u9675
p4446
sa(dp4447
Vname
p4448
V\u865e\u57ce
p4449
sa(dp4450
Vname
p4451
V\u6c11\u6743
p4452
sa(dp4453
Vname
p4454
V\u590f\u9091
p4455
sa(dp4456
Vname
p4457
V\u67d8\u57ce
p4458
sa(dp4459
Vname
p4460
V\u7762
sasa(dp4461
Vtype
p4462
I0
sVname
p4463
V\u4fe1\u9633
p4464
sVsub
p4465
(lp4466
(dp4467
Vname
p4468
V\u6d49\u6cb3
p4469
sa(dp4470
Vname
p4471
V\u5e73\u6865
p4472
sa(dp4473
Vname
p4474
V\u6f62\u5ddd
p4475
sa(dp4476
Vname
p4477
V\u6dee\u6ee8
p4478
sa(dp4479
Vname
p4480
V\u606f
sa(dp4481
Vname
p4482
V\u65b0
sa(dp4483
Vname
p4484
V\u5546\u57ce
p4485
sa(dp4486
Vname
p4487
V\u56fa\u59cb
p4488
sa(dp4489
Vname
p4490
V\u7f57\u5c71
p4491
sa(dp4492
Vname
p4493
V\u5149\u5c71
p4494
sasa(dp4495
Vtype
p4496
I0
sVname
p4497
V\u5468\u53e3
p4498
sVsub
p4499
(lp4500
(dp4501
Vname
p4502
V\u5ddd\u6c47
p4503
sa(dp4504
Vname
p4505
V\u9879\u57ce
p4506
sa(dp4507
Vname
p4508
V\u5546\u6c34
p4509
sa(dp4510
Vname
p4511
V\u6dee\u9633
p4512
sa(dp4513
Vname
p4514
V\u592a\u5eb7
p4515
sa(dp4516
Vname
p4517
V\u9e7f\u9091
p4518
sa(dp4519
Vname
p4520
V\u897f\u534e
p4521
sa(dp4522
Vname
p4523
V\u6276\u6c9f
p4524
sa(dp4525
Vname
p4526
V\u6c88\u4e18
p4527
sa(dp4528
Vname
p4529
V\u90f8\u57ce
p4530
sasa(dp4531
Vtype
p4532
I0
sVname
p4533
V\u9a7b\u9a6c\u5e97
p4534
sVsub
p4535
(lp4536
(dp4537
Vname
p4538
V\u9a7f\u57ce
p4539
sa(dp4540
Vname
p4541
V\u786e\u5c71
p4542
sa(dp4543
Vname
p4544
V\u65b0\u8521
p4545
sa(dp4546
Vname
p4547
V\u4e0a\u8521
p4548
sa(dp4549
Vname
p4550
V\u897f\u5e73
p4551
sa(dp4552
Vname
p4553
V\u6ccc\u9633
p4554
sa(dp4555
Vname
p4556
V\u5e73\u8206
p4557
sa(dp4558
Vname
p4559
V\u6c5d\u5357
p4560
sa(dp4561
Vname
p4562
V\u9042\u5e73
p4563
sa(dp4564
Vname
p4565
V\u6b63\u9633
p4566
sasa(dp4567
Vtype
p4568
I0
sVname
p4569
V\u7126\u4f5c
p4570
sVsub
p4571
(lp4572
(dp4573
Vname
p4574
V\u6d4e\u6e90
p4575
sasasa(dp4576
Vtype
p4577
I1
sVname
p4578
V\u5409\u6797
p4579
sVsub
p4580
(lp4581
(dp4582
Vtype
p4583
I0
sVname
p4584
V\u957f\u6625
p4585
sVsub
p4586
(lp4587
(dp4588
Vname
p4589
V\u671d\u9633
p4590
sa(dp4591
Vname
p4592
V\u5bbd\u57ce
p4593
sa(dp4594
Vname
p4595
V\u4e8c\u9053
p4596
sa(dp4597
Vname
p4598
V\u5357\u5173
p4599
sa(dp4600
Vname
p4601
V\u7eff\u56ed
p4602
sa(dp4603
Vname
p4604
V\u53cc\u9633
p4605
sa(dp4606
Vname
p4607
V\u4e5d\u53f0
p4608
sa(dp4609
Vname
p4610
V\u6986\u6811
p4611
sa(dp4612
Vname
p4613
V\u5fb7\u60e0
p4614
sa(dp4615
Vname
p4616
V\u519c\u5b89
p4617
sasa(dp4618
Vtype
p4619
I0
sVname
p4620
V\u5409\u6797
p4621
sVsub
p4622
(lp4623
(dp4624
Vname
p4625
V\u8239\u8425
p4626
sa(dp4627
Vname
p4628
V\u660c\u9091
p4629
sa(dp4630
Vname
p4631
V\u9f99\u6f6d
p4632
sa(dp4633
Vname
p4634
V\u4e30\u6ee1
p4635
sa(dp4636
Vname
p4637
V\u8212\u5170
p4638
sa(dp4639
Vname
p4640
V\u6866\u7538
p4641
sa(dp4642
Vname
p4643
V\u86df\u6cb3
p4644
sa(dp4645
Vname
p4646
V\u78d0\u77f3
p4647
sa(dp4648
Vname
p4649
V\u6c38\u5409
p4650
sasa(dp4651
Vtype
p4652
I0
sVname
p4653
V\u56db\u5e73
p4654
sVsub
p4655
(lp4656
(dp4657
Vname
p4658
V\u94c1\u897f
p4659
sa(dp4660
Vname
p4661
V\u94c1\u4e1c
p4662
sa(dp4663
Vname
p4664
V\u516c\u4e3b\u5cad
p4665
sa(dp4666
Vname
p4667
V\u53cc\u8fbd
p4668
sa(dp4669
Vname
p4670
V\u68a8\u6811
p4671
sa(dp4672
Vname
p4673
V\u4f0a\u901a\u6ee1\u65cf\u81ea\u6cbb
p4674
sasa(dp4675
Vtype
p4676
I0
sVname
p4677
V\u8fbd\u6e90
p4678
sVsub
p4679
(lp4680
(dp4681
Vname
p4682
V\u9f99\u5c71
p4683
sa(dp4684
Vname
p4685
V\u897f\u5b89
p4686
sa(dp4687
Vname
p4688
V\u4e1c\u8fbd
p4689
sa(dp4690
Vname
p4691
V\u4e1c\u4e30
p4692
sasa(dp4693
Vtype
p4694
I0
sVname
p4695
V\u901a\u5316
p4696
sVsub
p4697
(lp4698
(dp4699
Vname
p4700
V\u4e1c\u660c
p4701
sa(dp4702
Vname
p4703
V\u4e8c\u9053\u6c5f
p4704
sa(dp4705
Vname
p4706
V\u6885\u6cb3\u53e3
p4707
sa(dp4708
Vname
p4709
V\u96c6\u5b89
p4710
sa(dp4711
Vname
p4712
V\u901a\u5316
p4713
sa(dp4714
Vname
p4715
V\u8f89\u5357
p4716
sa(dp4717
Vname
p4718
V\u67f3\u6cb3
p4719
sasa(dp4720
Vtype
p4721
I0
sVname
p4722
V\u767d\u5c71
p4723
sVsub
p4724
(lp4725
(dp4726
Vname
p4727
V\u516b\u9053\u6c5f
p4728
sa(dp4729
Vname
p4730
V\u6c5f\u6e90
p4731
sa(dp4732
Vname
p4733
V\u4e34\u6c5f
p4734
sa(dp4735
Vname
p4736
V\u9756\u5b87
p4737
sa(dp4738
Vname
p4739
V\u629a\u677e
p4740
sa(dp4741
Vname
p4742
V\u957f\u767d\u671d\u9c9c\u65cf\u81ea\u6cbb
p4743
sasa(dp4744
Vtype
p4745
I0
sVname
p4746
V\u677e\u539f
p4747
sVsub
p4748
(lp4749
(dp4750
Vname
p4751
V\u5b81\u6c5f
p4752
sa(dp4753
Vname
p4754
V\u4e7e\u5b89
p4755
sa(dp4756
Vname
p4757
V\u957f\u5cad
p4758
sa(dp4759
Vname
p4760
V\u6276\u4f59
p4761
sa(dp4762
Vname
p4763
V\u524d\u90ed\u5c14\u7f57\u65af\u8499\u53e4\u65cf\u81ea\u6cbb
p4764
sasa(dp4765
Vtype
p4766
I0
sVname
p4767
V\u767d\u57ce
p4768
sVsub
p4769
(lp4770
(dp4771
Vname
p4772
V\u6d2e\u5317
p4773
sa(dp4774
Vname
p4775
V\u5927\u5b89
p4776
sa(dp4777
Vname
p4778
V\u6d2e\u5357
p4779
sa(dp4780
Vname
p4781
V\u9547\u8d49
p4782
sa(dp4783
Vname
p4784
V\u901a\u6986
p4785
sasa(dp4786
Vtype
p4787
I0
sVname
p4788
V\u5ef6\u8fb9\u671d\u9c9c\u65cf\u81ea\u6cbb\u5dde
p4789
sVsub
p4790
(lp4791
(dp4792
Vname
p4793
V\u5ef6\u5409
p4794
sa(dp4795
Vname
p4796
V\u56fe\u4eec
p4797
sa(dp4798
Vname
p4799
V\u6566\u5316
p4800
sa(dp4801
Vname
p4802
V\u9f99\u4e95
p4803
sa(dp4804
Vname
p4805
V\u73f2\u6625
p4806
sa(dp4807
Vname
p4808
V\u548c\u9f99
p4809
sa(dp4810
Vname
p4811
V\u5b89\u56fe
p4812
sa(dp4813
Vname
p4814
V\u6c6a\u6e05
p4815
sasasa(dp4816
Vtype
p4817
I1
sVname
p4818
V\u9ed1\u9f99\u6c5f
p4819
sVsub
p4820
(lp4821
(dp4822
Vtype
p4823
I0
sVname
p4824
V\u54c8\u5c14\u6ee8
p4825
sVsub
p4826
(lp4827
(dp4828
Vname
p4829
V\u677e\u5317
p4830
sa(dp4831
Vname
p4832
V\u9053\u91cc
p4833
sa(dp4834
Vname
p4835
V\u5357\u5c97
p4836
sa(dp4837
Vname
p4838
V\u5e73\u623f
p4839
sa(dp4840
Vname
p4841
V\u9999\u574a
p4842
sa(dp4843
Vname
p4844
V\u9053\u5916
p4845
sa(dp4846
Vname
p4847
V\u547c\u5170
p4848
sa(dp4849
Vname
p4850
V\u963f\u57ce
p4851
sa(dp4852
Vname
p4853
V\u53cc\u57ce
p4854
sa(dp4855
Vname
p4856
V\u5c1a\u5fd7
p4857
sa(dp4858
Vname
p4859
V\u4e94\u5e38
p4860
sa(dp4861
Vname
p4862
V\u5bbe
sa(dp4863
Vname
p4864
V\u65b9\u6b63
p4865
sa(dp4866
Vname
p4867
V\u901a\u6cb3
p4868
sa(dp4869
Vname
p4870
V\u5df4\u5f66
p4871
sa(dp4872
Vname
p4873
V\u5ef6\u5bff
p4874
sa(dp4875
Vname
p4876
V\u6728\u5170
p4877
sa(dp4878
Vname
p4879
V\u4f9d\u5170
p4880
sasa(dp4881
Vtype
p4882
I0
sVname
p4883
V\u9f50\u9f50\u54c8\u5c14
p4884
sVsub
p4885
(lp4886
(dp4887
Vname
p4888
V\u9f99\u6c99
p4889
sa(dp4890
Vname
p4891
V\u6602\u6602\u6eaa
p4892
sa(dp4893
Vname
p4894
V\u94c1\u950b
p4895
sa(dp4896
Vname
p4897
V\u5efa\u534e
p4898
sa(dp4899
Vname
p4900
V\u5bcc\u62c9\u5c14\u57fa
p4901
sa(dp4902
Vname
p4903
V\u78be\u5b50\u5c71
p4904
sa(dp4905
Vname
p4906
V\u6885\u91cc\u65af\u8fbe\u65a1\u5c14\u65cf
p4907
sa(dp4908
Vname
p4909
V\u8bb7\u6cb3
p4910
sa(dp4911
Vname
p4912
V\u5bcc\u88d5
p4913
sa(dp4914
Vname
p4915
V\u62dc\u6cc9
p4916
sa(dp4917
Vname
p4918
V\u7518\u5357
p4919
sa(dp4920
Vname
p4921
V\u4f9d\u5b89
p4922
sa(dp4923
Vname
p4924
V\u514b\u5c71
p4925
sa(dp4926
Vname
p4927
V\u6cf0\u6765
p4928
sa(dp4929
Vname
p4930
V\u514b\u4e1c
p4931
sa(dp4932
Vname
p4933
V\u9f99\u6c5f
p4934
sasa(dp4935
Vtype
p4936
I0
sVname
p4937
V\u9e64\u5c97
p4938
sVsub
p4939
(lp4940
(dp4941
Vname
p4942
V\u5174\u5c71
p4943
sa(dp4944
Vname
p4945
V\u5de5\u519c
p4946
sa(dp4947
Vname
p4948
V\u5357\u5c71
p4949
sa(dp4950
Vname
p4951
V\u5174\u5b89
p4952
sa(dp4953
Vname
p4954
V\u5411\u9633
p4955
sa(dp4956
Vname
p4957
V\u4e1c\u5c71
p4958
sa(dp4959
Vname
p4960
V\u841d\u5317
p4961
sa(dp4962
Vname
p4963
V\u7ee5\u6ee8
p4964
sasa(dp4965
Vtype
p4966
I0
sVname
p4967
V\u53cc\u9e2d\u5c71
p4968
sVsub
p4969
(lp4970
(dp4971
Vname
p4972
V\u5c16\u5c71
p4973
sa(dp4974
Vname
p4975
V\u5cad\u4e1c
p4976
sa(dp4977
Vname
p4978
V\u56db\u65b9\u53f0
p4979
sa(dp4980
Vname
p4981
V\u5b9d\u5c71
p4982
sa(dp4983
Vname
p4984
V\u96c6\u8d24
p4985
sa(dp4986
Vname
p4987
V\u5b9d\u6e05
p4988
sa(dp4989
Vname
p4990
V\u53cb\u8c0a
p4991
sa(dp4992
Vname
p4993
V\u9976\u6cb3
p4994
sasa(dp4995
Vtype
p4996
I0
sVname
p4997
V\u9e21\u897f
p4998
sVsub
p4999
(lp5000
(dp5001
Vname
p5002
V\u9e21\u51a0
p5003
sa(dp5004
Vname
p5005
V\u6052\u5c71
p5006
sa(dp5007
Vname
p5008
V\u57ce\u5b50\u6cb3
p5009
sa(dp5010
Vname
p5011
V\u6ef4\u9053
p5012
sa(dp5013
Vname
p5014
V\u68a8\u6811
p5015
sa(dp5016
Vname
p5017
V\u9ebb\u5c71
p5018
sa(dp5019
Vname
p5020
V\u5bc6\u5c71
p5021
sa(dp5022
Vname
p5023
V\u864e\u6797
p5024
sa(dp5025
Vname
p5026
V\u9e21\u4e1c
p5027
sasa(dp5028
Vtype
p5029
I0
sVname
p5030
V\u5927\u5e86
p5031
sVsub
p5032
(lp5033
(dp5034
Vname
p5035
V\u8428\u5c14\u56fe
p5036
sa(dp5037
Vname
p5038
V\u7ea2\u5c97
p5039
sa(dp5040
Vname
p5041
V\u9f99\u51e4
p5042
sa(dp5043
Vname
p5044
V\u8ba9\u80e1\u8def
p5045
sa(dp5046
Vname
p5047
V\u5927\u540c
p5048
sa(dp5049
Vname
p5050
V\u6797\u7538
p5051
sa(dp5052
Vname
p5053
V\u8087\u5dde
p5054
sa(dp5055
Vname
p5056
V\u8087\u6e90
p5057
sa(dp5058
Vname
p5059
V\u675c\u5c14\u4f2f\u7279\u8499\u53e4\u65cf\u81ea\u6cbb
p5060
sasa(dp5061
Vtype
p5062
I0
sVname
p5063
V\u4f0a\u6625
p5064
sVsub
p5065
(lp5066
(dp5067
Vname
p5068
V\u4f0a\u6625
p5069
sa(dp5070
Vname
p5071
V\u5e26\u5cad
p5072
sa(dp5073
Vname
p5074
V\u5357\u5c94
p5075
sa(dp5076
Vname
p5077
V\u91d1\u5c71\u5c6f
p5078
sa(dp5079
Vname
p5080
V\u897f\u6797
p5081
sa(dp5082
Vname
p5083
V\u7f8e\u6eaa
p5084
sa(dp5085
Vname
p5086
V\u4e4c\u9a6c\u6cb3
p5087
sa(dp5088
Vname
p5089
V\u7fe0\u5ce6
p5090
sa(dp5091
Vname
p5092
V\u53cb\u597d
p5093
sa(dp5094
Vname
p5095
V\u4e0a\u7518\u5cad
p5096
sa(dp5097
Vname
p5098
V\u4e94\u8425
p5099
sa(dp5100
Vname
p5101
V\u7ea2\u661f
p5102
sa(dp5103
Vname
p5104
V\u65b0\u9752
p5105
sa(dp5106
Vname
p5107
V\u6c64\u65fa\u6cb3
p5108
sa(dp5109
Vname
p5110
V\u4e4c\u4f0a\u5cad
p5111
sa(dp5112
Vname
p5113
V\u94c1\u529b
p5114
sa(dp5115
Vname
p5116
V\u5609\u836b
p5117
sasa(dp5118
Vtype
p5119
I0
sVname
p5120
V\u7261\u4e39\u6c5f
p5121
sVsub
p5122
(lp5123
(dp5124
Vname
p5125
V\u7231\u6c11
p5126
sa(dp5127
Vname
p5128
V\u4e1c\u5b89
p5129
sa(dp5130
Vname
p5131
V\u9633\u660e
p5132
sa(dp5133
Vname
p5134
V\u897f\u5b89
p5135
sa(dp5136
Vname
p5137
V\u7ee5\u82ac\u6cb3
p5138
sa(dp5139
Vname
p5140
V\u5b81\u5b89
p5141
sa(dp5142
Vname
p5143
V\u6d77\u6797
p5144
sa(dp5145
Vname
p5146
V\u7a46\u68f1
p5147
sa(dp5148
Vname
p5149
V\u6797\u53e3
p5150
sa(dp5151
Vname
p5152
V\u4e1c\u5b81
p5153
sasa(dp5154
Vtype
p5155
I0
sVname
p5156
V\u4f73\u6728\u65af
p5157
sVsub
p5158
(lp5159
(dp5160
Vname
p5161
V\u5411\u9633
p5162
sa(dp5163
Vname
p5164
V\u524d\u8fdb
p5165
sa(dp5166
Vname
p5167
V\u4e1c\u98ce
p5168
sa(dp5169
Vname
p5170
V\u90ca
sa(dp5171
Vname
p5172
V\u540c\u6c5f
p5173
sa(dp5174
Vname
p5175
V\u5bcc\u9526
p5176
sa(dp5177
Vname
p5178
V\u6866\u5ddd
p5179
sa(dp5180
Vname
p5181
V\u629a\u8fdc
p5182
sa(dp5183
Vname
p5184
V\u6866\u5357
p5185
sa(dp5186
Vname
p5187
V\u6c64\u539f
p5188
sasa(dp5189
Vtype
p5190
I0
sVname
p5191
V\u4e03\u53f0\u6cb3
p5192
sVsub
p5193
(lp5194
(dp5195
Vname
p5196
V\u6843\u5c71
p5197
sa(dp5198
Vname
p5199
V\u65b0\u5174
p5200
sa(dp5201
Vname
p5202
V\u8304\u5b50\u6cb3
p5203
sa(dp5204
Vname
p5205
V\u52c3\u5229
p5206
sasa(dp5207
Vtype
p5208
I0
sVname
p5209
V\u9ed1\u6cb3
p5210
sVsub
p5211
(lp5212
(dp5213
Vname
p5214
V\u7231\u8f89
p5215
sa(dp5216
Vname
p5217
V\u5317\u5b89
p5218
sa(dp5219
Vname
p5220
V\u4e94\u5927\u8fde\u6c60
p5221
sa(dp5222
Vname
p5223
V\u900a\u514b
p5224
sa(dp5225
Vname
p5226
V\u5ae9\u6c5f
p5227
sa(dp5228
Vname
p5229
V\u5b59\u5434
p5230
sasa(dp5231
Vtype
p5232
I0
sVname
p5233
V\u7ee5\u5316
p5234
sVsub
p5235
(lp5236
(dp5237
Vname
p5238
V\u5317\u6797
p5239
sa(dp5240
Vname
p5241
V\u5b89\u8fbe
p5242
sa(dp5243
Vname
p5244
V\u8087\u4e1c
p5245
sa(dp5246
Vname
p5247
V\u6d77\u4f26
p5248
sa(dp5249
Vname
p5250
V\u7ee5\u68f1
p5251
sa(dp5252
Vname
p5253
V\u5170\u897f
p5254
sa(dp5255
Vname
p5256
V\u660e\u6c34
p5257
sa(dp5258
Vname
p5259
V\u9752\u5188
p5260
sa(dp5261
Vname
p5262
V\u5e86\u5b89
p5263
sa(dp5264
Vname
p5265
V\u671b\u594e
p5266
sasa(dp5267
Vtype
p5268
I0
sVname
p5269
V\u5927\u5174\u5b89\u5cad\u5730
p5270
sVsub
p5271
(lp5272
(dp5273
Vname
p5274
V\u547c\u739b
p5275
sa(dp5276
Vname
p5277
V\u5854\u6cb3
p5278
sa(dp5279
Vname
p5280
V\u6f20\u6cb3
p5281
sa(dp5282
Vname
p5283
V\u5927\u5174\u5b89\u5cad\u8f96
p5284
sasasa(dp5285
Vtype
p5286
I1
sVname
p5287
V\u5185\u8499\u53e4
p5288
sVsub
p5289
(lp5290
(dp5291
Vtype
p5292
I0
sVname
p5293
V\u547c\u548c\u6d69\u7279
p5294
sVsub
p5295
(lp5296
(dp5297
Vname
p5298
V\u56de\u6c11
p5299
sa(dp5300
Vname
p5301
V\u7389\u6cc9
p5302
sa(dp5303
Vname
p5304
V\u65b0\u57ce
p5305
sa(dp5306
Vname
p5307
V\u8d5b\u7f55
p5308
sa(dp5309
Vname
p5310
V\u6258\u514b\u6258
p5311
sa(dp5312
Vname
p5313
V\u6e05\u6c34\u6cb3
p5314
sa(dp5315
Vname
p5316
V\u6b66\u5ddd
p5317
sa(dp5318
Vname
p5319
V\u548c\u6797\u683c\u5c14
p5320
sa(dp5321
Vname
p5322
V\u571f\u9ed8\u7279\u5de6\u65d7
p5323
sasa(dp5324
Vtype
p5325
I0
sVname
p5326
V\u5305\u5934
p5327
sVsub
p5328
(lp5329
(dp5330
Vname
p5331
V\u6606\u90fd\u4ed1
p5332
sa(dp5333
Vname
p5334
V\u9752\u5c71
p5335
sa(dp5336
Vname
p5337
V\u4e1c\u6cb3
p5338
sa(dp5339
Vname
p5340
V\u4e5d\u539f
p5341
sa(dp5342
Vname
p5343
V\u77f3\u62d0
p5344
sa(dp5345
Vname
p5346
V\u767d\u4e91\u77ff
p5347
sa(dp5348
Vname
p5349
V\u56fa\u9633
p5350
sa(dp5351
Vname
p5352
V\u571f\u9ed8\u7279\u53f3\u65d7
p5353
sa(dp5354
Vname
p5355
V\u8fbe\u5c14\u7f55\u8302\u660e\u5b89\u8054\u5408\u65d7
p5356
sasa(dp5357
Vtype
p5358
I0
sVname
p5359
V\u4e4c\u6d77
p5360
sVsub
p5361
(lp5362
(dp5363
Vname
p5364
V\u6d77\u52c3\u6e7e
p5365
sa(dp5366
Vname
p5367
V\u4e4c\u8fbe
p5368
sa(dp5369
Vname
p5370
V\u6d77\u5357
p5371
sasa(dp5372
Vtype
p5373
I0
sVname
p5374
V\u8d64\u5cf0
p5375
sVsub
p5376
(lp5377
(dp5378
Vname
p5379
V\u7ea2\u5c71
p5380
sa(dp5381
Vname
p5382
V\u5143\u5b9d\u5c71
p5383
sa(dp5384
Vname
p5385
V\u677e\u5c71
p5386
sa(dp5387
Vname
p5388
V\u5b81\u57ce
p5389
sa(dp5390
Vname
p5391
V\u6797\u897f
p5392
sa(dp5393
Vname
p5394
V\u5580\u5587\u6c81\u65d7
p5395
sa(dp5396
Vname
p5397
V\u5df4\u6797\u5de6\u65d7
p5398
sa(dp5399
Vname
p5400
V\u6556\u6c49\u65d7
p5401
sa(dp5402
Vname
p5403
V\u963f\u9c81\u79d1\u5c14\u6c81\u65d7
p5404
sa(dp5405
Vname
p5406
V\u7fc1\u725b\u7279\u65d7
p5407
sa(dp5408
Vname
p5409
V\u514b\u4ec0\u514b\u817e\u65d7
p5410
sa(dp5411
Vname
p5412
V\u5df4\u6797\u53f3\u65d7
p5413
sasa(dp5414
Vtype
p5415
I0
sVname
p5416
V\u901a\u8fbd
p5417
sVsub
p5418
(lp5419
(dp5420
Vname
p5421
V\u79d1\u5c14\u6c81
p5422
sa(dp5423
Vname
p5424
V\u970d\u6797\u90ed\u52d2
p5425
sa(dp5426
Vname
p5427
V\u5f00\u9c81
p5428
sa(dp5429
Vname
p5430
V\u79d1\u5c14\u6c81\u5de6\u7ffc\u4e2d\u65d7
p5431
sa(dp5432
Vname
p5433
V\u79d1\u5c14\u6c81\u5de6\u7ffc\u540e\u65d7
p5434
sa(dp5435
Vname
p5436
V\u5e93\u4f26\u65d7
p5437
sa(dp5438
Vname
p5439
V\u5948\u66fc\u65d7
p5440
sa(dp5441
Vname
p5442
V\u624e\u9c81\u7279\u65d7
p5443
sasa(dp5444
Vtype
p5445
I0
sVname
p5446
V\u9102\u5c14\u591a\u65af
p5447
sVsub
p5448
(lp5449
(dp5450
Vname
p5451
V\u4e1c\u80dc
p5452
sa(dp5453
Vname
p5454
V\u51c6\u683c\u5c14\u65d7
p5455
sa(dp5456
Vname
p5457
V\u4e4c\u5ba1\u65d7
p5458
sa(dp5459
Vname
p5460
V\u4f0a\u91d1\u970d\u6d1b\u65d7
p5461
sa(dp5462
Vname
p5463
V\u9102\u6258\u514b\u65d7
p5464
sa(dp5465
Vname
p5466
V\u9102\u6258\u514b\u524d\u65d7
p5467
sa(dp5468
Vname
p5469
V\u676d\u9526\u65d7
p5470
sa(dp5471
Vname
p5472
V\u8fbe\u62c9\u7279\u65d7
p5473
sasa(dp5474
Vtype
p5475
I0
sVname
p5476
V\u547c\u4f26\u8d1d\u5c14
p5477
sVsub
p5478
(lp5479
(dp5480
Vname
p5481
V\u6d77\u62c9\u5c14
p5482
sa(dp5483
Vname
p5484
V\u6ee1\u6d32\u91cc
p5485
sa(dp5486
Vname
p5487
V\u7259\u514b\u77f3
p5488
sa(dp5489
Vname
p5490
V\u624e\u5170\u5c6f
p5491
sa(dp5492
Vname
p5493
V\u6839\u6cb3
p5494
sa(dp5495
Vname
p5496
V\u989d\u5c14\u53e4\u7eb3
p5497
sa(dp5498
Vname
p5499
V\u9648\u5df4\u5c14\u864e\u65d7
p5500
sa(dp5501
Vname
p5502
V\u963f\u8363\u65d7
p5503
sa(dp5504
Vname
p5505
V\u65b0\u5df4\u5c14\u864e\u5de6\u65d7
p5506
sa(dp5507
Vname
p5508
V\u65b0\u5df4\u5c14\u864e\u53f3\u65d7
p5509
sa(dp5510
Vname
p5511
V\u9102\u4f26\u6625\u81ea\u6cbb\u65d7
p5512
sa(dp5513
Vname
p5514
V\u83ab\u529b\u8fbe\u74e6\u8fbe\u65a1\u5c14\u65cf\u81ea\u6cbb\u65d7
p5515
sa(dp5516
Vname
p5517
V\u9102\u6e29\u514b\u65cf\u81ea\u6cbb\u65d7
p5518
sasa(dp5519
Vtype
p5520
I0
sVname
p5521
V\u5df4\u5f66\u6dd6\u5c14
p5522
sVsub
p5523
(lp5524
(dp5525
Vname
p5526
V\u4e34\u6cb3
p5527
sa(dp5528
Vname
p5529
V\u4e94\u539f
p5530
sa(dp5531
Vname
p5532
V\u78f4\u53e3
p5533
sa(dp5534
Vname
p5535
V\u676d\u9526\u540e\u65d7
p5536
sa(dp5537
Vname
p5538
V\u4e4c\u62c9\u7279\u4e2d\u65d7
p5539
sa(dp5540
Vname
p5541
V\u4e4c\u62c9\u7279\u524d\u65d7
p5542
sa(dp5543
Vname
p5544
V\u4e4c\u62c9\u7279\u540e\u65d7
p5545
sasa(dp5546
Vtype
p5547
I0
sVname
p5548
V\u4e4c\u5170\u5bdf\u5e03
p5549
sVsub
p5550
(lp5551
(dp5552
Vname
p5553
V\u96c6\u5b81
p5554
sa(dp5555
Vname
p5556
V\u4e30\u9547
p5557
sa(dp5558
Vname
p5559
V\u5174\u548c
p5560
sa(dp5561
Vname
p5562
V\u5353\u8d44
p5563
sa(dp5564
Vname
p5565
V\u5546\u90fd
p5566
sa(dp5567
Vname
p5568
V\u51c9\u57ce
p5569
sa(dp5570
Vname
p5571
V\u5316\u5fb7
p5572
sa(dp5573
Vname
p5574
V\u56db\u5b50\u738b\u65d7
p5575
sa(dp5576
Vname
p5577
V\u5bdf\u54c8\u5c14\u53f3\u7ffc\u524d\u65d7
p5578
sa(dp5579
Vname
p5580
V\u5bdf\u54c8\u5c14\u53f3\u7ffc\u4e2d\u65d7
p5581
sa(dp5582
Vname
p5583
V\u5bdf\u54c8\u5c14\u53f3\u7ffc\u540e\u65d7
p5584
sasa(dp5585
Vtype
p5586
I0
sVname
p5587
V\u9521\u6797\u90ed\u52d2\u76df
p5588
sVsub
p5589
(lp5590
(dp5591
Vname
p5592
V\u9521\u6797\u6d69\u7279
p5593
sa(dp5594
Vname
p5595
V\u4e8c\u8fde\u6d69\u7279
p5596
sa(dp5597
Vname
p5598
V\u591a\u4f26
p5599
sa(dp5600
Vname
p5601
V\u963f\u5df4\u560e\u65d7
p5602
sa(dp5603
Vname
p5604
V\u897f\u4e4c\u73e0\u7a46\u6c81\u65d7
p5605
sa(dp5606
Vname
p5607
V\u4e1c\u4e4c\u73e0\u7a46\u6c81\u65d7
p5608
sa(dp5609
Vname
p5610
V\u82cf\u5c3c\u7279\u5de6\u65d7
p5611
sa(dp5612
Vname
p5613
V\u82cf\u5c3c\u7279\u53f3\u65d7
p5614
sa(dp5615
Vname
p5616
V\u592a\u4ec6\u5bfa\u65d7
p5617
sa(dp5618
Vname
p5619
V\u6b63\u9576\u767d\u65d7
p5620
sa(dp5621
Vname
p5622
V\u6b63\u84dd\u65d7
p5623
sa(dp5624
Vname
p5625
V\u9576\u9ec4\u65d7
p5626
sasa(dp5627
Vtype
p5628
I0
sVname
p5629
V\u5174\u5b89\u76df
p5630
sVsub
p5631
(lp5632
(dp5633
Vname
p5634
V\u4e4c\u5170\u6d69\u7279
p5635
sa(dp5636
Vname
p5637
V\u963f\u5c14\u5c71
p5638
sa(dp5639
Vname
p5640
V\u7a81\u6cc9
p5641
sa(dp5642
Vname
p5643
V\u624e\u8d49\u7279\u65d7
p5644
sa(dp5645
Vname
p5646
V\u79d1\u5c14\u6c81\u53f3\u7ffc\u524d\u65d7
p5647
sa(dp5648
Vname
p5649
V\u79d1\u5c14\u6c81\u53f3\u7ffc\u4e2d\u65d7
p5650
sasa(dp5651
Vtype
p5652
I0
sVname
p5653
V\u963f\u62c9\u5584\u76df
p5654
sVsub
p5655
(lp5656
(dp5657
Vname
p5658
V\u963f\u62c9\u5584\u5de6\u65d7
p5659
sa(dp5660
Vname
p5661
V\u963f\u62c9\u5584\u53f3\u65d7
p5662
sa(dp5663
Vname
p5664
V\u989d\u6d4e\u7eb3\u65d7
p5665
sasasa(dp5666
Vtype
p5667
I1
sVname
p5668
V\u5c71\u4e1c
p5669
sVsub
p5670
(lp5671
(dp5672
Vtype
p5673
I0
sVname
p5674
V\u6d4e\u5357
p5675
sVsub
p5676
(lp5677
(dp5678
Vname
p5679
V\u4e2d
sa(dp5680
Vname
p5681
V\u5386\u4e0b
p5682
sa(dp5683
Vname
p5684
V\u5929\u6865
p5685
sa(dp5686
Vname
p5687
V\u69d0\u836b
p5688
sa(dp5689
Vname
p5690
V\u5386\u57ce
p5691
sa(dp5692
Vname
p5693
V\u957f\u6e05
p5694
sa(dp5695
Vname
p5696
V\u7ae0\u4e18
p5697
sa(dp5698
Vname
p5699
V\u5e73\u9634
p5700
sa(dp5701
Vname
p5702
V\u6d4e\u9633
p5703
sa(dp5704
Vname
p5705
V\u5546\u6cb3
p5706
sasa(dp5707
Vtype
p5708
I0
sVname
p5709
V\u9752\u5c9b
p5710
sVsub
p5711
(lp5712
(dp5713
Vname
p5714
V\u5357
sa(dp5715
Vname
p5716
V\u5317
sa(dp5717
Vname
p5718
V\u57ce\u9633
p5719
sa(dp5720
Vname
p5721
V\u56db\u65b9
p5722
sa(dp5723
Vname
p5724
V\u674e\u6ca7
p5725
sa(dp5726
Vname
p5727
V\u9ec4\u5c9b
p5728
sa(dp5729
Vname
p5730
V\u5d02\u5c71
p5731
sa(dp5732
Vname
p5733
V\u80f6\u5357
p5734
sa(dp5735
Vname
p5736
V\u80f6\u5dde
p5737
sa(dp5738
Vname
p5739
V\u5e73\u5ea6
p5740
sa(dp5741
Vname
p5742
V\u83b1\u897f
p5743
sa(dp5744
Vname
p5745
V\u5373\u58a8
p5746
sasa(dp5747
Vtype
p5748
I0
sVname
p5749
V\u6dc4\u535a
p5750
sVsub
p5751
(lp5752
(dp5753
Vname
p5754
V\u5f20\u5e97
p5755
sa(dp5756
Vname
p5757
V\u4e34\u6dc4
p5758
sa(dp5759
Vname
p5760
V\u6dc4\u5ddd
p5761
sa(dp5762
Vname
p5763
V\u535a\u5c71
p5764
sa(dp5765
Vname
p5766
V\u5468\u6751
p5767
sa(dp5768
Vname
p5769
V\u6853\u53f0
p5770
sa(dp5771
Vname
p5772
V\u9ad8\u9752
p5773
sa(dp5774
Vname
p5775
V\u6c82\u6e90
p5776
sasa(dp5777
Vtype
p5778
I0
sVname
p5779
V\u67a3\u5e84
p5780
sVsub
p5781
(lp5782
(dp5783
Vname
p5784
V\u4e2d
sa(dp5785
Vname
p5786
V\u5c71\u4ead
p5787
sa(dp5788
Vname
p5789
V\u5cc4\u57ce
p5790
sa(dp5791
Vname
p5792
V\u53f0\u513f\u5e84
p5793
sa(dp5794
Vname
p5795
V\u859b\u57ce
p5796
sa(dp5797
Vname
p5798
V\u6ed5\u5dde
p5799
sasa(dp5800
Vtype
p5801
I0
sVname
p5802
V\u4e1c\u8425
p5803
sVsub
p5804
(lp5805
(dp5806
Vname
p5807
V\u4e1c\u8425
p5808
sa(dp5809
Vname
p5810
V\u6cb3\u53e3
p5811
sa(dp5812
Vname
p5813
V\u57a6\u5229
p5814
sa(dp5815
Vname
p5816
V\u5e7f\u9976
p5817
sa(dp5818
Vname
p5819
V\u5229\u6d25
p5820
sasa(dp5821
Vtype
p5822
I0
sVname
p5823
V\u70df\u53f0
p5824
sVsub
p5825
(lp5826
(dp5827
Vname
p5828
V\u829d\u7f58
p5829
sa(dp5830
Vname
p5831
V\u798f\u5c71
p5832
sa(dp5833
Vname
p5834
V\u725f\u5e73
p5835
sa(dp5836
Vname
p5837
V\u83b1\u5c71
p5838
sa(dp5839
Vname
p5840
V\u9f99\u53e3
p5841
sa(dp5842
Vname
p5843
V\u83b1\u9633
p5844
sa(dp5845
Vname
p5846
V\u83b1\u5dde
p5847
sa(dp5848
Vname
p5849
V\u62db\u8fdc
p5850
sa(dp5851
Vname
p5852
V\u84ec\u83b1
p5853
sa(dp5854
Vname
p5855
V\u6816\u971e
p5856
sa(dp5857
Vname
p5858
V\u6d77\u9633
p5859
sa(dp5860
Vname
p5861
V\u957f\u5c9b
p5862
sasa(dp5863
Vtype
p5864
I0
sVname
p5865
V\u6f4d\u574a
p5866
sVsub
p5867
(lp5868
(dp5869
Vname
p5870
V\u6f4d\u57ce
p5871
sa(dp5872
Vname
p5873
V\u5bd2\u4ead
p5874
sa(dp5875
Vname
p5876
V\u574a\u5b50
p5877
sa(dp5878
Vname
p5879
V\u594e\u6587
p5880
sa(dp5881
Vname
p5882
V\u9752\u5dde
p5883
sa(dp5884
Vname
p5885
V\u8bf8\u57ce
p5886
sa(dp5887
Vname
p5888
V\u5bff\u5149
p5889
sa(dp5890
Vname
p5891
V\u5b89\u4e18
p5892
sa(dp5893
Vname
p5894
V\u9ad8\u5bc6
p5895
sa(dp5896
Vname
p5897
V\u660c\u9091
p5898
sa(dp5899
Vname
p5900
V\u660c\u4e50
p5901
sa(dp5902
Vname
p5903
V\u4e34\u6710
p5904
sasa(dp5905
Vtype
p5906
I0
sVname
p5907
V\u6d4e\u5b81
p5908
sVsub
p5909
(lp5910
(dp5911
Vname
p5912
V\u4e2d
sa(dp5913
Vname
p5914
V\u4efb\u57ce
p5915
sa(dp5916
Vname
p5917
V\u66f2\u961c
p5918
sa(dp5919
Vname
p5920
V\u5156\u5dde
p5921
sa(dp5922
Vname
p5923
V\u90b9\u57ce
p5924
sa(dp5925
Vname
p5926
V\u9c7c\u53f0
p5927
sa(dp5928
Vname
p5929
V\u91d1\u4e61
p5930
sa(dp5931
Vname
p5932
V\u5609\u7965
p5933
sa(dp5934
Vname
p5935
V\u5fae\u5c71
p5936
sa(dp5937
Vname
p5938
V\u6c76\u4e0a
p5939
sa(dp5940
Vname
p5941
V\u6cd7\u6c34
p5942
sa(dp5943
Vname
p5944
V\u6881\u5c71
p5945
sasa(dp5946
Vtype
p5947
I0
sVname
p5948
V\u6cf0\u5b89
p5949
sVsub
p5950
(lp5951
(dp5952
Vname
p5953
V\u6cf0\u5c71
p5954
sa(dp5955
Vname
p5956
V\u5cb1\u5cb3
p5957
sa(dp5958
Vname
p5959
V\u65b0\u6cf0
p5960
sa(dp5961
Vname
p5962
V\u80a5\u57ce
p5963
sa(dp5964
Vname
p5965
V\u5b81\u9633
p5966
sa(dp5967
Vname
p5968
V\u4e1c\u5e73
p5969
sasa(dp5970
Vtype
p5971
I0
sVname
p5972
V\u5a01\u6d77
p5973
sVsub
p5974
(lp5975
(dp5976
Vname
p5977
V\u73af\u7fe0
p5978
sa(dp5979
Vname
p5980
V\u4e73\u5c71
p5981
sa(dp5982
Vname
p5983
V\u6587\u767b
p5984
sa(dp5985
Vname
p5986
V\u8363\u6210
p5987
sasa(dp5988
Vtype
p5989
I0
sVname
p5990
V\u65e5\u7167
p5991
sVsub
p5992
(lp5993
(dp5994
Vname
p5995
V\u4e1c\u6e2f
p5996
sa(dp5997
Vname
p5998
V\u5c9a\u5c71
p5999
sa(dp6000
Vname
p6001
V\u4e94\u83b2
p6002
sa(dp6003
Vname
p6004
V\u8392
sasa(dp6005
Vtype
p6006
I0
sVname
p6007
V\u83b1\u829c
p6008
sVsub
p6009
(lp6010
(dp6011
Vname
p6012
V\u83b1\u57ce
p6013
sa(dp6014
Vname
p6015
V\u94a2\u57ce
p6016
sasa(dp6017
Vtype
p6018
I0
sVname
p6019
V\u4e34\u6c82
p6020
sVsub
p6021
(lp6022
(dp6023
Vname
p6024
V\u5170\u5c71
p6025
sa(dp6026
Vname
p6027
V\u7f57\u5e84
p6028
sa(dp6029
Vname
p6030
V\u6cb3\u4e1c
p6031
sa(dp6032
Vname
p6033
V\u6c82\u5357
p6034
sa(dp6035
Vname
p6036
V\u90ef\u57ce
p6037
sa(dp6038
Vname
p6039
V\u6c82\u6c34
p6040
sa(dp6041
Vname
p6042
V\u82cd\u5c71
p6043
sa(dp6044
Vname
p6045
V\u8d39
sa(dp6046
Vname
p6047
V\u5e73\u9091
p6048
sa(dp6049
Vname
p6050
V\u8392\u5357
p6051
sa(dp6052
Vname
p6053
V\u8499\u9634
p6054
sa(dp6055
Vname
p6056
V\u4e34\u6cad
p6057
sasa(dp6058
Vtype
p6059
I0
sVname
p6060
V\u5fb7\u5dde
p6061
sVsub
p6062
(lp6063
(dp6064
Vname
p6065
V\u5fb7\u57ce
p6066
sa(dp6067
Vname
p6068
V\u4e50\u9675
p6069
sa(dp6070
Vname
p6071
V\u79b9\u57ce
p6072
sa(dp6073
Vname
p6074
V\u9675
sa(dp6075
Vname
p6076
V\u5b81\u6d25
p6077
sa(dp6078
Vname
p6079
V\u9f50\u6cb3
p6080
sa(dp6081
Vname
p6082
V\u6b66\u57ce
p6083
sa(dp6084
Vname
p6085
V\u5e86\u4e91
p6086
sa(dp6087
Vname
p6088
V\u5e73\u539f
p6089
sa(dp6090
Vname
p6091
V\u590f\u6d25
p6092
sa(dp6093
Vname
p6094
V\u4e34\u9091
p6095
sasa(dp6096
Vtype
p6097
I0
sVname
p6098
V\u804a\u57ce
p6099
sVsub
p6100
(lp6101
(dp6102
Vname
p6103
V\u4e1c\u660c\u5e9c
p6104
sa(dp6105
Vname
p6106
V\u4e34\u6e05
p6107
sa(dp6108
Vname
p6109
V\u9ad8\u5510
p6110
sa(dp6111
Vname
p6112
V\u9633\u8c37
p6113
sa(dp6114
Vname
p6115
V\u830c\u5e73
p6116
sa(dp6117
Vname
p6118
V\u8398
sa(dp6119
Vname
p6120
V\u4e1c\u963f
p6121
sa(dp6122
Vname
p6123
V\u51a0
sasa(dp6124
Vtype
p6125
I0
sVname
p6126
V\u6ee8\u5dde
p6127
sVsub
p6128
(lp6129
(dp6130
Vname
p6131
V\u6ee8\u57ce
p6132
sa(dp6133
Vname
p6134
V\u90b9\u5e73
p6135
sa(dp6136
Vname
p6137
V\u6cbe\u5316
p6138
sa(dp6139
Vname
p6140
V\u60e0\u6c11
p6141
sa(dp6142
Vname
p6143
V\u535a\u5174
p6144
sa(dp6145
Vname
p6146
V\u9633\u4fe1
p6147
sa(dp6148
Vname
p6149
V\u65e0\u68e3
p6150
sasa(dp6151
Vtype
p6152
I0
sVname
p6153
V\u83cf\u6cfd
p6154
sVsub
p6155
(lp6156
(dp6157
Vname
p6158
V\u7261\u4e39
p6159
sa(dp6160
Vname
p6161
V\u9104\u57ce
p6162
sa(dp6163
Vname
p6164
V\u5355
sa(dp6165
Vname
p6166
V\u90d3\u57ce
p6167
sa(dp6168
Vname
p6169
V\u66f9
sa(dp6170
Vname
p6171
V\u5b9a\u9676
p6172
sa(dp6173
Vname
p6174
V\u5de8\u91ce
p6175
sa(dp6176
Vname
p6177
V\u4e1c\u660e
p6178
sa(dp6179
Vname
p6180
V\u6210\u6b66
p6181
sasasa(dp6182
Vtype
p6183
I1
sVname
p6184
V\u5b89\u5fbd
p6185
sVsub
p6186
(lp6187
(dp6188
Vtype
p6189
I0
sVname
p6190
V\u5408\u80a5
p6191
sVsub
p6192
(lp6193
(dp6194
Vname
p6195
V\u5e90\u9633
p6196
sa(dp6197
Vname
p6198
V\u7476\u6d77
p6199
sa(dp6200
Vname
p6201
V\u8700\u5c71
p6202
sa(dp6203
Vname
p6204
V\u5305\u6cb3
p6205
sa(dp6206
Vname
p6207
V\u957f\u4e30
p6208
sa(dp6209
Vname
p6210
V\u80a5\u4e1c
p6211
sa(dp6212
Vname
p6213
V\u80a5\u897f
p6214
sasa(dp6215
Vtype
p6216
I0
sVname
p6217
V\u829c\u6e56
p6218
sVsub
p6219
(lp6220
(dp6221
Vname
p6222
V\u955c\u6e56
p6223
sa(dp6224
Vname
p6225
V\u5f0b\u6c5f
p6226
sa(dp6227
Vname
p6228
V\u9e20\u6c5f
p6229
sa(dp6230
Vname
p6231
V\u4e09\u5c71
p6232
sa(dp6233
Vname
p6234
V\u829c\u6e56
p6235
sa(dp6236
Vname
p6237
V\u5357\u9675
p6238
sa(dp6239
Vname
p6240
V\u7e41\u660c
p6241
sasa(dp6242
Vtype
p6243
I0
sVname
p6244
V\u868c\u57e0
p6245
sVsub
p6246
(lp6247
(dp6248
Vname
p6249
V\u868c\u5c71
p6250
sa(dp6251
Vname
p6252
V\u9f99\u5b50\u6e56
p6253
sa(dp6254
Vname
p6255
V\u79b9\u4f1a
p6256
sa(dp6257
Vname
p6258
V\u6dee\u4e0a
p6259
sa(dp6260
Vname
p6261
V\u6000\u8fdc
p6262
sa(dp6263
Vname
p6264
V\u56fa\u9547
p6265
sa(dp6266
Vname
p6267
V\u4e94\u6cb3
p6268
sasa(dp6269
Vtype
p6270
I0
sVname
p6271
V\u6dee\u5357
p6272
sVsub
p6273
(lp6274
(dp6275
Vname
p6276
V\u7530\u5bb6\u5eb5
p6277
sa(dp6278
Vname
p6279
V\u5927\u901a
p6280
sa(dp6281
Vname
p6282
V\u8c22\u5bb6\u96c6
p6283
sa(dp6284
Vname
p6285
V\u516b\u516c\u5c71
p6286
sa(dp6287
Vname
p6288
V\u6f58\u96c6
p6289
sa(dp6290
Vname
p6291
V\u51e4\u53f0
p6292
sasa(dp6293
Vtype
p6294
I0
sVname
p6295
V\u9a6c\u978d\u5c71
p6296
sVsub
p6297
(lp6298
(dp6299
Vname
p6300
V\u96e8\u5c71
p6301
sa(dp6302
Vname
p6303
V\u82b1\u5c71
p6304
sa(dp6305
Vname
p6306
V\u91d1\u5bb6\u5e84
p6307
sa(dp6308
Vname
p6309
V\u5f53\u6d82
p6310
sasa(dp6311
Vtype
p6312
I0
sVname
p6313
V\u6dee\u5317
p6314
sVsub
p6315
(lp6316
(dp6317
Vname
p6318
V\u76f8\u5c71
p6319
sa(dp6320
Vname
p6321
V\u675c\u96c6
p6322
sa(dp6323
Vname
p6324
V\u70c8\u5c71
p6325
sa(dp6326
Vname
p6327
V\u6fc9\u6eaa
p6328
sasa(dp6329
Vtype
p6330
I0
sVname
p6331
V\u94dc\u9675
p6332
sVsub
p6333
(lp6334
(dp6335
Vname
p6336
V\u94dc\u5b98\u5c71
p6337
sa(dp6338
Vname
p6339
V\u72ee\u5b50\u5c71
p6340
sa(dp6341
Vname
p6342
V\u90ca
sa(dp6343
Vname
p6344
V\u94dc\u9675
p6345
sasa(dp6346
Vtype
p6347
I0
sVname
p6348
V\u5b89\u5e86
p6349
sVsub
p6350
(lp6351
(dp6352
Vname
p6353
V\u8fce\u6c5f
p6354
sa(dp6355
Vname
p6356
V\u5927\u89c2
p6357
sa(dp6358
Vname
p6359
V\u5b9c\u79c0
p6360
sa(dp6361
Vname
p6362
V\u6850\u57ce
p6363
sa(dp6364
Vname
p6365
V\u5bbf\u677e
p6366
sa(dp6367
Vname
p6368
V\u679e\u9633
p6369
sa(dp6370
Vname
p6371
V\u592a\u6e56
p6372
sa(dp6373
Vname
p6374
V\u6000\u5b81
p6375
sa(dp6376
Vname
p6377
V\u5cb3\u897f
p6378
sa(dp6379
Vname
p6380
V\u671b\u6c5f
p6381
sa(dp6382
Vname
p6383
V\u6f5c\u5c71
p6384
sasa(dp6385
Vtype
p6386
I0
sVname
p6387
V\u9ec4\u5c71
p6388
sVsub
p6389
(lp6390
(dp6391
Vname
p6392
V\u5c6f\u6eaa
p6393
sa(dp6394
Vname
p6395
V\u9ec4\u5c71
p6396
sa(dp6397
Vname
p6398
V\u5fbd\u5dde
p6399
sa(dp6400
Vname
p6401
V\u4f11\u5b81
p6402
sa(dp6403
Vname
p6404
V\u6b59
sa(dp6405
Vname
p6406
V\u7941\u95e8
p6407
sa(dp6408
Vname
p6409
V\u9edf
sasa(dp6410
Vtype
p6411
I0
sVname
p6412
V\u6ec1\u5dde
p6413
sVsub
p6414
(lp6415
(dp6416
Vname
p6417
V\u7405\u740a
p6418
sa(dp6419
Vname
p6420
V\u5357\u8c2f
p6421
sa(dp6422
Vname
p6423
V\u5929\u957f
p6424
sa(dp6425
Vname
p6426
V\u660e\u5149
p6427
sa(dp6428
Vname
p6429
V\u5168\u6912
p6430
sa(dp6431
Vname
p6432
V\u6765\u5b89
p6433
sa(dp6434
Vname
p6435
V\u5b9a\u8fdc
p6436
sa(dp6437
Vname
p6438
V\u51e4\u9633
p6439
sasa(dp6440
Vtype
p6441
I0
sVname
p6442
V\u961c\u9633
p6443
sVsub
p6444
(lp6445
(dp6446
Vname
p6447
V\u988d\u5dde
p6448
sa(dp6449
Vname
p6450
V\u988d\u4e1c
p6451
sa(dp6452
Vname
p6453
V\u988d\u6cc9
p6454
sa(dp6455
Vname
p6456
V\u754c\u9996
p6457
sa(dp6458
Vname
p6459
V\u4e34\u6cc9
p6460
sa(dp6461
Vname
p6462
V\u988d\u4e0a
p6463
sa(dp6464
Vname
p6465
V\u961c\u5357
p6466
sa(dp6467
Vname
p6468
V\u592a\u548c
p6469
sasa(dp6470
Vtype
p6471
I0
sVname
p6472
V\u5bbf\u5dde
p6473
sVsub
p6474
(lp6475
(dp6476
Vname
p6477
V\u57c7\u6865
p6478
sa(dp6479
Vname
p6480
V\u8427
sa(dp6481
Vname
p6482
V\u6cd7
sa(dp6483
Vname
p6484
V\u7800\u5c71
p6485
sa(dp6486
Vname
p6487
V\u7075\u74a7
p6488
sasa(dp6489
Vtype
p6490
I0
sVname
p6491
V\u5de2\u6e56
p6492
sVsub
p6493
(lp6494
(dp6495
Vname
p6496
V\u5c45\u5de2
p6497
sa(dp6498
Vname
p6499
V\u542b\u5c71
p6500
sa(dp6501
Vname
p6502
V\u65e0\u4e3a
p6503
sa(dp6504
Vname
p6505
V\u5e90\u6c5f
p6506
sa(dp6507
Vname
p6508
V\u548c
sasa(dp6509
Vtype
p6510
I0
sVname
p6511
V\u516d\u5b89
p6512
sVsub
p6513
(lp6514
(dp6515
Vname
p6516
V\u91d1\u5b89
p6517
sa(dp6518
Vname
p6519
V\u88d5\u5b89
p6520
sa(dp6521
Vname
p6522
V\u5bff
sa(dp6523
Vname
p6524
V\u970d\u5c71
p6525
sa(dp6526
Vname
p6527
V\u970d\u90b1
p6528
sa(dp6529
Vname
p6530
V\u8212\u57ce
p6531
sa(dp6532
Vname
p6533
V\u91d1\u5be8
p6534
sasa(dp6535
Vtype
p6536
I0
sVname
p6537
V\u4eb3\u5dde
p6538
sVsub
p6539
(lp6540
(dp6541
Vname
p6542
V\u8c2f\u57ce
p6543
sa(dp6544
Vname
p6545
V\u5229\u8f9b
p6546
sa(dp6547
Vname
p6548
V\u6da1\u9633
p6549
sa(dp6550
Vname
p6551
V\u8499\u57ce
p6552
sasa(dp6553
Vtype
p6554
I0
sVname
p6555
V\u6c60\u5dde
p6556
sVsub
p6557
(lp6558
(dp6559
Vname
p6560
V\u8d35\u6c60
p6561
sa(dp6562
Vname
p6563
V\u4e1c\u81f3
p6564
sa(dp6565
Vname
p6566
V\u77f3\u53f0
p6567
sa(dp6568
Vname
p6569
V\u9752\u9633
p6570
sasa(dp6571
Vtype
p6572
I0
sVname
p6573
V\u5ba3\u57ce
p6574
sVsub
p6575
(lp6576
(dp6577
Vname
p6578
V\u5ba3\u5dde
p6579
sa(dp6580
Vname
p6581
V\u5b81\u56fd
p6582
sa(dp6583
Vname
p6584
V\u5e7f\u5fb7
p6585
sa(dp6586
Vname
p6587
V\u90ce\u6eaa
p6588
sa(dp6589
Vname
p6590
V\u6cfe
sa(dp6591
Vname
p6592
V\u65cc\u5fb7
p6593
sa(dp6594
Vname
p6595
V\u7ee9\u6eaa
p6596
sasasa(dp6597
Vtype
p6598
I1
sVname
p6599
V\u6d59\u6c5f
p6600
sVsub
p6601
(lp6602
(dp6603
Vtype
p6604
I0
sVname
p6605
V\u676d\u5dde
p6606
sVsub
p6607
(lp6608
(dp6609
Vname
p6610
V\u62f1\u5885
p6611
sa(dp6612
Vname
p6613
V\u897f\u6e56
p6614
sa(dp6615
Vname
p6616
V\u4e0a\u57ce
p6617
sa(dp6618
Vname
p6619
V\u4e0b\u57ce
p6620
sa(dp6621
Vname
p6622
V\u6c5f\u5e72
p6623
sa(dp6624
Vname
p6625
V\u6ee8\u6c5f
p6626
sa(dp6627
Vname
p6628
V\u4f59\u676d
p6629
sa(dp6630
Vname
p6631
V\u8427\u5c71
p6632
sa(dp6633
Vname
p6634
V\u5efa\u5fb7
p6635
sa(dp6636
Vname
p6637
V\u5bcc\u9633
p6638
sa(dp6639
Vname
p6640
V\u4e34\u5b89
p6641
sa(dp6642
Vname
p6643
V\u6850\u5e90
p6644
sa(dp6645
Vname
p6646
V\u6df3\u5b89
p6647
sasa(dp6648
Vtype
p6649
I0
sVname
p6650
V\u5b81\u6ce2
p6651
sVsub
p6652
(lp6653
(dp6654
Vname
p6655
V\u6d77\u66d9
p6656
sa(dp6657
Vname
p6658
V\u6c5f\u4e1c
p6659
sa(dp6660
Vname
p6661
V\u6c5f\u5317
p6662
sa(dp6663
Vname
p6664
V\u9547\u6d77
p6665
sa(dp6666
Vname
p6667
V\u5317\u4ed1
p6668
sa(dp6669
Vname
p6670
V\u911e\u5dde
p6671
sa(dp6672
Vname
p6673
V\u4f59\u59da
p6674
sa(dp6675
Vname
p6676
V\u6148\u6eaa
p6677
sa(dp6678
Vname
p6679
V\u5949\u5316
p6680
sa(dp6681
Vname
p6682
V\u5b81\u6d77
p6683
sa(dp6684
Vname
p6685
V\u8c61\u5c71
p6686
sasa(dp6687
Vtype
p6688
I0
sVname
p6689
V\u6e29\u5dde
p6690
sVsub
p6691
(lp6692
(dp6693
Vname
p6694
V\u9e7f\u57ce
p6695
sa(dp6696
Vname
p6697
V\u9f99\u6e7e
p6698
sa(dp6699
Vname
p6700
V\u74ef\u6d77
p6701
sa(dp6702
Vname
p6703
V\u745e\u5b89
p6704
sa(dp6705
Vname
p6706
V\u4e50\u6e05
p6707
sa(dp6708
Vname
p6709
V\u6c38\u5609
p6710
sa(dp6711
Vname
p6712
V\u6d1e\u5934
p6713
sa(dp6714
Vname
p6715
V\u5e73\u9633
p6716
sa(dp6717
Vname
p6718
V\u82cd\u5357
p6719
sa(dp6720
Vname
p6721
V\u6587\u6210
p6722
sa(dp6723
Vname
p6724
V\u6cf0\u987a
p6725
sasa(dp6726
Vtype
p6727
I0
sVname
p6728
V\u5609\u5174
p6729
sVsub
p6730
(lp6731
(dp6732
Vname
p6733
V\u79c0\u57ce
p6734
sa(dp6735
Vname
p6736
V\u79c0\u6d32
p6737
sa(dp6738
Vname
p6739
V\u6d77\u5b81
p6740
sa(dp6741
Vname
p6742
V\u5e73\u6e56
p6743
sa(dp6744
Vname
p6745
V\u6850\u4e61
p6746
sa(dp6747
Vname
p6748
V\u5609\u5584
p6749
sa(dp6750
Vname
p6751
V\u6d77\u76d0
p6752
sasa(dp6753
Vtype
p6754
I0
sVname
p6755
V\u6e56\u5dde
p6756
sVsub
p6757
(lp6758
(dp6759
Vname
p6760
V\u5434\u5174
p6761
sa(dp6762
Vname
p6763
V\u5357\u6d54
p6764
sa(dp6765
Vname
p6766
V\u957f\u5174
p6767
sa(dp6768
Vname
p6769
V\u5fb7\u6e05
p6770
sa(dp6771
Vname
p6772
V\u5b89\u5409
p6773
sasa(dp6774
Vtype
p6775
I0
sVname
p6776
V\u7ecd\u5174
p6777
sVsub
p6778
(lp6779
(dp6780
Vname
p6781
V\u8d8a\u57ce
p6782
sa(dp6783
Vname
p6784
V\u8bf8\u66a8
p6785
sa(dp6786
Vname
p6787
V\u4e0a\u865e
p6788
sa(dp6789
Vname
p6790
V\u5d4a\u5dde
p6791
sa(dp6792
Vname
p6793
V\u7ecd\u5174
p6794
sa(dp6795
Vname
p6796
V\u65b0\u660c
p6797
sasa(dp6798
Vtype
p6799
I0
sVname
p6800
V\u91d1\u534e
p6801
sVsub
p6802
(lp6803
(dp6804
Vname
p6805
V\u5a7a\u57ce
p6806
sa(dp6807
Vname
p6808
V\u91d1\u4e1c
p6809
sa(dp6810
Vname
p6811
V\u5170\u6eaa
p6812
sa(dp6813
Vname
p6814
V\u4e49\u4e4c
p6815
sa(dp6816
Vname
p6817
V\u4e1c\u9633
p6818
sa(dp6819
Vname
p6820
V\u6c38\u5eb7
p6821
sa(dp6822
Vname
p6823
V\u6b66\u4e49
p6824
sa(dp6825
Vname
p6826
V\u6d66\u6c5f
p6827
sa(dp6828
Vname
p6829
V\u78d0\u5b89
p6830
sasa(dp6831
Vtype
p6832
I0
sVname
p6833
V\u8862\u5dde
p6834
sVsub
p6835
(lp6836
(dp6837
Vname
p6838
V\u67ef\u57ce
p6839
sa(dp6840
Vname
p6841
V\u8862\u6c5f
p6842
sa(dp6843
Vname
p6844
V\u6c5f\u5c71
p6845
sa(dp6846
Vname
p6847
V\u9f99\u6e38
p6848
sa(dp6849
Vname
p6850
V\u5e38\u5c71
p6851
sa(dp6852
Vname
p6853
V\u5f00\u5316
p6854
sasa(dp6855
Vtype
p6856
I0
sVname
p6857
V\u821f\u5c71
p6858
sVsub
p6859
(lp6860
(dp6861
Vname
p6862
V\u5b9a\u6d77
p6863
sa(dp6864
Vname
p6865
V\u666e\u9640
p6866
sa(dp6867
Vname
p6868
V\u5cb1\u5c71
p6869
sa(dp6870
Vname
p6871
V\u5d4a\u6cd7
p6872
sasa(dp6873
Vtype
p6874
I0
sVname
p6875
V\u53f0\u5dde
p6876
sVsub
p6877
(lp6878
(dp6879
Vname
p6880
V\u6912\u6c5f
p6881
sa(dp6882
Vname
p6883
V\u9ec4\u5ca9
p6884
sa(dp6885
Vname
p6886
V\u8def\u6865
p6887
sa(dp6888
Vname
p6889
V\u4e34\u6d77
p6890
sa(dp6891
Vname
p6892
V\u6e29\u5cad
p6893
sa(dp6894
Vname
p6895
V\u7389\u73af
p6896
sa(dp6897
Vname
p6898
V\u5929\u53f0
p6899
sa(dp6900
Vname
p6901
V\u4ed9\u5c45
p6902
sa(dp6903
Vname
p6904
V\u4e09\u95e8
p6905
sasa(dp6906
Vtype
p6907
I0
sVname
p6908
V\u4e3d\u6c34
p6909
sVsub
p6910
(lp6911
(dp6912
Vname
p6913
V\u83b2\u90fd
p6914
sa(dp6915
Vname
p6916
V\u9f99\u6cc9
p6917
sa(dp6918
Vname
p6919
V\u7f19\u4e91
p6920
sa(dp6921
Vname
p6922
V\u9752\u7530
p6923
sa(dp6924
Vname
p6925
V\u4e91\u548c
p6926
sa(dp6927
Vname
p6928
V\u9042\u660c
p6929
sa(dp6930
Vname
p6931
V\u677e\u9633
p6932
sa(dp6933
Vname
p6934
V\u5e86\u5143
p6935
sa(dp6936
Vname
p6937
V\u666f\u5b81\u7572\u65cf\u81ea\u6cbb
p6938
sasasa(dp6939
Vtype
p6940
I1
sVname
p6941
V\u798f\u5efa
p6942
sVsub
p6943
(lp6944
(dp6945
Vtype
p6946
I0
sVname
p6947
V\u798f\u5dde
p6948
sVsub
p6949
(lp6950
(dp6951
Vname
p6952
V\u9f13\u697c
p6953
sa(dp6954
Vname
p6955
V\u53f0\u6c5f
p6956
sa(dp6957
Vname
p6958
V\u4ed3\u5c71
p6959
sa(dp6960
Vname
p6961
V\u9a6c\u5c3e
p6962
sa(dp6963
Vname
p6964
V\u664b\u5b89
p6965
sa(dp6966
Vname
p6967
V\u798f\u6e05
p6968
sa(dp6969
Vname
p6970
V\u957f\u4e50
p6971
sa(dp6972
Vname
p6973
V\u95fd\u4faf
p6974
sa(dp6975
Vname
p6976
V\u95fd\u6e05
p6977
sa(dp6978
Vname
p6979
V\u6c38\u6cf0
p6980
sa(dp6981
Vname
p6982
V\u8fde\u6c5f
p6983
sa(dp6984
Vname
p6985
V\u7f57\u6e90
p6986
sa(dp6987
Vname
p6988
V\u5e73\u6f6d
p6989
sasa(dp6990
Vtype
p6991
I0
sVname
p6992
V\u53a6\u95e8
p6993
sVsub
p6994
(lp6995
(dp6996
Vname
p6997
V\u601d\u660e
p6998
sa(dp6999
Vname
p7000
V\u6d77\u6ca7
p7001
sa(dp7002
Vname
p7003
V\u6e56\u91cc
p7004
sa(dp7005
Vname
p7006
V\u96c6\u7f8e
p7007
sa(dp7008
Vname
p7009
V\u540c\u5b89
p7010
sa(dp7011
Vname
p7012
V\u7fd4\u5b89
p7013
sasa(dp7014
Vtype
p7015
I0
sVname
p7016
V\u8386\u7530
p7017
sVsub
p7018
(lp7019
(dp7020
Vname
p7021
V\u57ce\u53a2
p7022
sa(dp7023
Vname
p7024
V\u6db5\u6c5f
p7025
sa(dp7026
Vname
p7027
V\u8354\u57ce
p7028
sa(dp7029
Vname
p7030
V\u79c0\u5c7f
p7031
sa(dp7032
Vname
p7033
V\u4ed9\u6e38
p7034
sasa(dp7035
Vtype
p7036
I0
sVname
p7037
V\u4e09\u660e
p7038
sVsub
p7039
(lp7040
(dp7041
Vname
p7042
V\u6885\u5217
p7043
sa(dp7044
Vname
p7045
V\u4e09\u5143
p7046
sa(dp7047
Vname
p7048
V\u6c38\u5b89
p7049
sa(dp7050
Vname
p7051
V\u660e\u6eaa
p7052
sa(dp7053
Vname
p7054
V\u5c06\u4e50
p7055
sa(dp7056
Vname
p7057
V\u5927\u7530
p7058
sa(dp7059
Vname
p7060
V\u5b81\u5316
p7061
sa(dp7062
Vname
p7063
V\u5efa\u5b81
p7064
sa(dp7065
Vname
p7066
V\u6c99
sa(dp7067
Vname
p7068
V\u5c24\u6eaa
p7069
sa(dp7070
Vname
p7071
V\u6e05\u6d41
p7072
sa(dp7073
Vname
p7074
V\u6cf0\u5b81
p7075
sasa(dp7076
Vtype
p7077
I0
sVname
p7078
V\u6cc9\u5dde
p7079
sVsub
p7080
(lp7081
(dp7082
Vname
p7083
V\u9ca4\u57ce
p7084
sa(dp7085
Vname
p7086
V\u4e30\u6cfd
p7087
sa(dp7088
Vname
p7089
V\u6d1b\u6c5f
p7090
sa(dp7091
Vname
p7092
V\u6cc9\u6e2f
p7093
sa(dp7094
Vname
p7095
V\u77f3\u72ee
p7096
sa(dp7097
Vname
p7098
V\u664b\u6c5f
p7099
sa(dp7100
Vname
p7101
V\u5357\u5b89
p7102
sa(dp7103
Vname
p7104
V\u60e0\u5b89
p7105
sa(dp7106
Vname
p7107
V\u6c38\u6625
p7108
sa(dp7109
Vname
p7110
V\u5b89\u6eaa
p7111
sa(dp7112
Vname
p7113
V\u5fb7\u5316
p7114
sa(dp7115
Vname
p7116
V\u91d1\u95e8
p7117
sasa(dp7118
Vtype
p7119
I0
sVname
p7120
V\u6f33\u5dde
p7121
sVsub
p7122
(lp7123
(dp7124
Vname
p7125
V\u8297\u57ce
p7126
sa(dp7127
Vname
p7128
V\u9f99\u6587
p7129
sa(dp7130
Vname
p7131
V\u9f99\u6d77
p7132
sa(dp7133
Vname
p7134
V\u5e73\u548c
p7135
sa(dp7136
Vname
p7137
V\u5357\u9756
p7138
sa(dp7139
Vname
p7140
V\u8bcf\u5b89
p7141
sa(dp7142
Vname
p7143
V\u6f33\u6d66
p7144
sa(dp7145
Vname
p7146
V\u534e\u5b89
p7147
sa(dp7148
Vname
p7149
V\u4e1c\u5c71
p7150
sa(dp7151
Vname
p7152
V\u957f\u6cf0
p7153
sa(dp7154
Vname
p7155
V\u4e91\u9704
p7156
sasa(dp7157
Vtype
p7158
I0
sVname
p7159
V\u5357\u5e73
p7160
sVsub
p7161
(lp7162
(dp7163
Vname
p7164
V\u5ef6\u5e73
p7165
sa(dp7166
Vname
p7167
V\u5efa\u74ef
p7168
sa(dp7169
Vname
p7170
V\u90b5\u6b66
p7171
sa(dp7172
Vname
p7173
V\u6b66\u5937\u5c71
p7174
sa(dp7175
Vname
p7176
V\u5efa\u9633
p7177
sa(dp7178
Vname
p7179
V\u677e\u6eaa
p7180
sa(dp7181
Vname
p7182
V\u5149\u6cfd
p7183
sa(dp7184
Vname
p7185
V\u987a\u660c
p7186
sa(dp7187
Vname
p7188
V\u6d66\u57ce
p7189
sa(dp7190
Vname
p7191
V\u653f\u548c
p7192
sasa(dp7193
Vtype
p7194
I0
sVname
p7195
V\u9f99\u5ca9
p7196
sVsub
p7197
(lp7198
(dp7199
Vname
p7200
V\u65b0\u7f57
p7201
sa(dp7202
Vname
p7203
V\u6f33\u5e73
p7204
sa(dp7205
Vname
p7206
V\u957f\u6c40
p7207
sa(dp7208
Vname
p7209
V\u6b66\u5e73
p7210
sa(dp7211
Vname
p7212
V\u4e0a\u676d
p7213
sa(dp7214
Vname
p7215
V\u6c38\u5b9a
p7216
sa(dp7217
Vname
p7218
V\u8fde\u57ce
p7219
sasa(dp7220
Vtype
p7221
I0
sVname
p7222
V\u5b81\u5fb7
p7223
sVsub
p7224
(lp7225
(dp7226
Vname
p7227
V\u8549\u57ce
p7228
sa(dp7229
Vname
p7230
V\u798f\u5b89
p7231
sa(dp7232
Vname
p7233
V\u798f\u9f0e
p7234
sa(dp7235
Vname
p7236
V\u5bff\u5b81
p7237
sa(dp7238
Vname
p7239
V\u971e\u6d66
p7240
sa(dp7241
Vname
p7242
V\u67d8\u8363
p7243
sa(dp7244
Vname
p7245
V\u5c4f\u5357
p7246
sa(dp7247
Vname
p7248
V\u53e4\u7530
p7249
sa(dp7250
Vname
p7251
V\u5468\u5b81
p7252
sasasa(dp7253
Vtype
p7254
I1
sVname
p7255
V\u6e56\u5357
p7256
sVsub
p7257
(lp7258
(dp7259
Vtype
p7260
I0
sVname
p7261
V\u957f\u6c99
p7262
sVsub
p7263
(lp7264
(dp7265
Vname
p7266
V\u5cb3\u9e93
p7267
sa(dp7268
Vname
p7269
V\u8299\u84c9
p7270
sa(dp7271
Vname
p7272
V\u5929\u5fc3
p7273
sa(dp7274
Vname
p7275
V\u5f00\u798f
p7276
sa(dp7277
Vname
p7278
V\u96e8\u82b1
p7279
sa(dp7280
Vname
p7281
V\u6d4f\u9633
p7282
sa(dp7283
Vname
p7284
V\u957f\u6c99
p7285
sa(dp7286
Vname
p7287
V\u671b\u57ce
p7288
sa(dp7289
Vname
p7290
V\u5b81\u4e61
p7291
sasa(dp7292
Vtype
p7293
I0
sVname
p7294
V\u682a\u6d32
p7295
sVsub
p7296
(lp7297
(dp7298
Vname
p7299
V\u5929\u5143
p7300
sa(dp7301
Vname
p7302
V\u8377\u5858
p7303
sa(dp7304
Vname
p7305
V\u82a6\u6dde
p7306
sa(dp7307
Vname
p7308
V\u77f3\u5cf0
p7309
sa(dp7310
Vname
p7311
V\u91b4\u9675
p7312
sa(dp7313
Vname
p7314
V\u682a\u6d32
p7315
sa(dp7316
Vname
p7317
V\u708e\u9675
p7318
sa(dp7319
Vname
p7320
V\u8336\u9675
p7321
sa(dp7322
Vname
p7323
V\u6538
sasa(dp7324
Vtype
p7325
I0
sVname
p7326
V\u6e58\u6f6d
p7327
sVsub
p7328
(lp7329
(dp7330
Vname
p7331
V\u5cb3\u5858
p7332
sa(dp7333
Vname
p7334
V\u96e8\u6e56
p7335
sa(dp7336
Vname
p7337
V\u6e58\u4e61
p7338
sa(dp7339
Vname
p7340
V\u97f6\u5c71
p7341
sa(dp7342
Vname
p7343
V\u6e58\u6f6d
p7344
sasa(dp7345
Vtype
p7346
I0
sVname
p7347
V\u8861\u9633
p7348
sVsub
p7349
(lp7350
(dp7351
Vname
p7352
V\u96c1\u5cf0
p7353
sa(dp7354
Vname
p7355
V\u73e0\u6656
p7356
sa(dp7357
Vname
p7358
V\u77f3\u9f13
p7359
sa(dp7360
Vname
p7361
V\u84b8\u6e58
p7362
sa(dp7363
Vname
p7364
V\u5357\u5cb3
p7365
sa(dp7366
Vname
p7367
V\u8012\u9633
p7368
sa(dp7369
Vname
p7370
V\u5e38\u5b81
p7371
sa(dp7372
Vname
p7373
V\u8861\u9633
p7374
sa(dp7375
Vname
p7376
V\u8861\u4e1c
p7377
sa(dp7378
Vname
p7379
V\u8861\u5c71
p7380
sa(dp7381
Vname
p7382
V\u8861\u5357
p7383
sa(dp7384
Vname
p7385
V\u7941\u4e1c
p7386
sasa(dp7387
Vtype
p7388
I0
sVname
p7389
V\u90b5\u9633
p7390
sVsub
p7391
(lp7392
(dp7393
Vname
p7394
V\u53cc\u6e05
p7395
sa(dp7396
Vname
p7397
V\u5927\u7965
p7398
sa(dp7399
Vname
p7400
V\u5317\u5854
p7401
sa(dp7402
Vname
p7403
V\u6b66\u5188
p7404
sa(dp7405
Vname
p7406
V\u90b5\u4e1c
p7407
sa(dp7408
Vname
p7409
V\u6d1e\u53e3
p7410
sa(dp7411
Vname
p7412
V\u65b0\u90b5
p7413
sa(dp7414
Vname
p7415
V\u7ee5\u5b81
p7416
sa(dp7417
Vname
p7418
V\u65b0\u5b81
p7419
sa(dp7420
Vname
p7421
V\u90b5\u9633
p7422
sa(dp7423
Vname
p7424
V\u9686\u56de
p7425
sa(dp7426
Vname
p7427
V\u57ce\u6b65\u82d7\u65cf\u81ea\u6cbb
p7428
sasa(dp7429
Vtype
p7430
I0
sVname
p7431
V\u5cb3\u9633
p7432
sVsub
p7433
(lp7434
(dp7435
Vname
p7436
V\u5cb3\u9633\u697c
p7437
sa(dp7438
Vname
p7439
V\u4e91\u6eaa
p7440
sa(dp7441
Vname
p7442
V\u541b\u5c71
p7443
sa(dp7444
Vname
p7445
V\u4e34\u6e58
p7446
sa(dp7447
Vname
p7448
V\u6c68\u7f57
p7449
sa(dp7450
Vname
p7451
V\u5cb3\u9633
p7452
sa(dp7453
Vname
p7454
V\u6e58\u9634
p7455
sa(dp7456
Vname
p7457
V\u5e73\u6c5f
p7458
sa(dp7459
Vname
p7460
V\u534e\u5bb9
p7461
sasa(dp7462
Vtype
p7463
I0
sVname
p7464
V\u5e38\u5fb7
p7465
sVsub
p7466
(lp7467
(dp7468
Vname
p7469
V\u6b66\u9675
p7470
sa(dp7471
Vname
p7472
V\u9f0e\u57ce
p7473
sa(dp7474
Vname
p7475
V\u6d25
sa(dp7476
Vname
p7477
V\u6fa7
sa(dp7478
Vname
p7479
V\u4e34\u6fa7
p7480
sa(dp7481
Vname
p7482
V\u6843\u6e90
p7483
sa(dp7484
Vname
p7485
V\u6c49\u5bff
p7486
sa(dp7487
Vname
p7488
V\u5b89\u4e61
p7489
sa(dp7490
Vname
p7491
V\u77f3\u95e8
p7492
sasa(dp7493
Vtype
p7494
I0
sVname
p7495
V\u5f20\u5bb6\u754c
p7496
sVsub
p7497
(lp7498
(dp7499
Vname
p7500
V\u6c38\u5b9a
p7501
sa(dp7502
Vname
p7503
V\u6b66\u9675\u6e90
p7504
sa(dp7505
Vname
p7506
V\u6148\u5229
p7507
sa(dp7508
Vname
p7509
V\u6851\u690d
p7510
sasa(dp7511
Vtype
p7512
I0
sVname
p7513
V\u76ca\u9633
p7514
sVsub
p7515
(lp7516
(dp7517
Vname
p7518
V\u8d6b\u5c71
p7519
sa(dp7520
Vname
p7521
V\u8d44\u9633
p7522
sa(dp7523
Vname
p7524
V\u6c85\u6c5f
p7525
sa(dp7526
Vname
p7527
V\u6843\u6c5f
p7528
sa(dp7529
Vname
p7530
V\u5357
sa(dp7531
Vname
p7532
V\u5b89\u5316
p7533
sasa(dp7534
Vtype
p7535
I0
sVname
p7536
V\u90f4\u5dde
p7537
sVsub
p7538
(lp7539
(dp7540
Vname
p7541
V\u5317\u6e56
p7542
sa(dp7543
Vname
p7544
V\u82cf\u4ed9
p7545
sa(dp7546
Vname
p7547
V\u8d44\u5174
p7548
sa(dp7549
Vname
p7550
V\u5b9c\u7ae0
p7551
sa(dp7552
Vname
p7553
V\u6c5d\u57ce
p7554
sa(dp7555
Vname
p7556
V\u5b89\u4ec1
p7557
sa(dp7558
Vname
p7559
V\u5609\u79be
p7560
sa(dp7561
Vname
p7562
V\u4e34\u6b66
p7563
sa(dp7564
Vname
p7565
V\u6842\u4e1c
p7566
sa(dp7567
Vname
p7568
V\u6c38\u5174
p7569
sa(dp7570
Vname
p7571
V\u6842\u9633
p7572
sasa(dp7573
Vtype
p7574
I0
sVname
p7575
V\u6c38\u5dde
p7576
sVsub
p7577
(lp7578
(dp7579
Vname
p7580
V\u51b7\u6c34\u6ee9
p7581
sa(dp7582
Vname
p7583
V\u96f6\u9675
p7584
sa(dp7585
Vname
p7586
V\u7941\u9633
p7587
sa(dp7588
Vname
p7589
V\u84dd\u5c71
p7590
sa(dp7591
Vname
p7592
V\u5b81\u8fdc
p7593
sa(dp7594
Vname
p7595
V\u65b0\u7530
p7596
sa(dp7597
Vname
p7598
V\u4e1c\u5b89
p7599
sa(dp7600
Vname
p7601
V\u6c5f\u6c38
p7602
sa(dp7603
Vname
p7604
V\u9053
sa(dp7605
Vname
p7606
V\u53cc\u724c
p7607
sa(dp7608
Vname
p7609
V\u6c5f\u534e\u7476\u65cf\u81ea\u6cbb
p7610
sasa(dp7611
Vtype
p7612
I0
sVname
p7613
V\u6000\u5316
p7614
sVsub
p7615
(lp7616
(dp7617
Vname
p7618
V\u9e64\u57ce
p7619
sa(dp7620
Vname
p7621
V\u6d2a\u6c5f
p7622
sa(dp7623
Vname
p7624
V\u4f1a\u540c
p7625
sa(dp7626
Vname
p7627
V\u6c85\u9675
p7628
sa(dp7629
Vname
p7630
V\u8fb0\u6eaa
p7631
sa(dp7632
Vname
p7633
V\u6e86\u6d66
p7634
sa(dp7635
Vname
p7636
V\u4e2d\u65b9
p7637
sa(dp7638
Vname
p7639
V\u65b0\u6643\u4f97\u65cf\u81ea\u6cbb
p7640
sa(dp7641
Vname
p7642
V\u82b7\u6c5f\u4f97\u65cf\u81ea\u6cbb
p7643
sa(dp7644
Vname
p7645
V\u901a\u9053\u4f97\u65cf\u81ea\u6cbb
p7646
sa(dp7647
Vname
p7648
V\u9756\u5dde\u82d7\u65cf\u4f97\u65cf\u81ea\u6cbb
p7649
sa(dp7650
Vname
p7651
V\u9ebb\u9633\u82d7\u65cf\u81ea\u6cbb
p7652
sasa(dp7653
Vtype
p7654
I0
sVname
p7655
V\u5a04\u5e95
p7656
sVsub
p7657
(lp7658
(dp7659
Vname
p7660
V\u5a04\u661f
p7661
sa(dp7662
Vname
p7663
V\u51b7\u6c34\u6c5f
p7664
sa(dp7665
Vname
p7666
V\u6d9f\u6e90
p7667
sa(dp7668
Vname
p7669
V\u65b0\u5316
p7670
sa(dp7671
Vname
p7672
V\u53cc\u5cf0
p7673
sasa(dp7674
Vtype
p7675
I0
sVname
p7676
V\u6e58\u897f\u571f\u5bb6\u65cf\u82d7\u65cf\u81ea\u6cbb\u5dde
p7677
sVsub
p7678
(lp7679
(dp7680
Vname
p7681
V\u5409\u9996
p7682
sa(dp7683
Vname
p7684
V\u53e4\u4e08
p7685
sa(dp7686
Vname
p7687
V\u9f99\u5c71
p7688
sa(dp7689
Vname
p7690
V\u6c38\u987a
p7691
sa(dp7692
Vname
p7693
V\u51e4\u51f0
p7694
sa(dp7695
Vname
p7696
V\u6cf8\u6eaa
p7697
sa(dp7698
Vname
p7699
V\u4fdd\u9756
p7700
sa(dp7701
Vname
p7702
V\u82b1\u57a3
p7703
sasasa(dp7704
Vtype
p7705
I1
sVname
p7706
V\u5e7f\u897f
p7707
sVsub
p7708
(lp7709
(dp7710
Vtype
p7711
I0
sVname
p7712
V\u5357\u5b81
p7713
sVsub
p7714
(lp7715
(dp7716
Vname
p7717
V\u9752\u79c0
p7718
sa(dp7719
Vname
p7720
V\u5174\u5b81
p7721
sa(dp7722
Vname
p7723
V\u897f\u4e61\u5858
p7724
sa(dp7725
Vname
p7726
V\u826f\u5e86
p7727
sa(dp7728
Vname
p7729
V\u6c5f\u5357
p7730
sa(dp7731
Vname
p7732
V\u9095\u5b81
p7733
sa(dp7734
Vname
p7735
V\u6b66\u9e23
p7736
sa(dp7737
Vname
p7738
V\u9686\u5b89
p7739
sa(dp7740
Vname
p7741
V\u9a6c\u5c71
p7742
sa(dp7743
Vname
p7744
V\u4e0a\u6797
p7745
sa(dp7746
Vname
p7747
V\u5bbe\u9633
p7748
sa(dp7749
Vname
p7750
V\u6a2a
sasa(dp7751
Vtype
p7752
I0
sVname
p7753
V\u67f3\u5dde
p7754
sVsub
p7755
(lp7756
(dp7757
Vname
p7758
V\u57ce\u4e2d
p7759
sa(dp7760
Vname
p7761
V\u9c7c\u5cf0
p7762
sa(dp7763
Vname
p7764
V\u67f3\u5317
p7765
sa(dp7766
Vname
p7767
V\u67f3\u5357
p7768
sa(dp7769
Vname
p7770
V\u67f3\u6c5f
p7771
sa(dp7772
Vname
p7773
V\u67f3\u57ce
p7774
sa(dp7775
Vname
p7776
V\u9e7f\u5be8
p7777
sa(dp7778
Vname
p7779
V\u878d\u5b89
p7780
sa(dp7781
Vname
p7782
V\u878d\u6c34\u82d7\u65cf\u81ea\u6cbb
p7783
sa(dp7784
Vname
p7785
V\u4e09\u6c5f\u4f97\u65cf\u81ea\u6cbb
p7786
sasa(dp7787
Vtype
p7788
I0
sVname
p7789
V\u6842\u6797
p7790
sVsub
p7791
(lp7792
(dp7793
Vname
p7794
V\u8c61\u5c71
p7795
sa(dp7796
Vname
p7797
V\u79c0\u5cf0
p7798
sa(dp7799
Vname
p7800
V\u53e0\u5f69
p7801
sa(dp7802
Vname
p7803
V\u4e03\u661f
p7804
sa(dp7805
Vname
p7806
V\u96c1\u5c71
p7807
sa(dp7808
Vname
p7809
V\u9633\u6714
p7810
sa(dp7811
Vname
p7812
V\u4e34\u6842
p7813
sa(dp7814
Vname
p7815
V\u7075\u5ddd
p7816
sa(dp7817
Vname
p7818
V\u5168\u5dde
p7819
sa(dp7820
Vname
p7821
V\u5e73\u4e50
p7822
sa(dp7823
Vname
p7824
V\u5174\u5b89
p7825
sa(dp7826
Vname
p7827
V\u704c\u9633
p7828
sa(dp7829
Vname
p7830
V\u8354\u6d66
p7831
sa(dp7832
Vname
p7833
V\u8d44\u6e90
p7834
sa(dp7835
Vname
p7836
V\u6c38\u798f
p7837
sa(dp7838
Vname
p7839
V\u9f99\u80dc\u5404\u65cf\u81ea\u6cbb
p7840
sa(dp7841
Vname
p7842
V\u606d\u57ce\u7476\u65cf\u81ea\u6cbb
p7843
sasa(dp7844
Vtype
p7845
I0
sVname
p7846
V\u68a7\u5dde
p7847
sVsub
p7848
(lp7849
(dp7850
Vname
p7851
V\u4e07\u79c0
p7852
sa(dp7853
Vname
p7854
V\u8776\u5c71
p7855
sa(dp7856
Vname
p7857
V\u957f\u6d32
p7858
sa(dp7859
Vname
p7860
V\u5c91\u6eaa
p7861
sa(dp7862
Vname
p7863
V\u82cd\u68a7
p7864
sa(dp7865
Vname
p7866
V\u85e4
sa(dp7867
Vname
p7868
V\u8499\u5c71
p7869
sasa(dp7870
Vtype
p7871
I0
sVname
p7872
V\u5317\u6d77
p7873
sVsub
p7874
(lp7875
(dp7876
Vname
p7877
V\u6d77\u57ce
p7878
sa(dp7879
Vname
p7880
V\u94f6\u6d77
p7881
sa(dp7882
Vname
p7883
V\u94c1\u5c71\u6e2f
p7884
sa(dp7885
Vname
p7886
V\u5408\u6d66
p7887
sasa(dp7888
Vtype
p7889
I0
sVname
p7890
V\u9632\u57ce\u6e2f
p7891
sVsub
p7892
(lp7893
(dp7894
Vname
p7895
V\u6e2f\u53e3
p7896
sa(dp7897
Vname
p7898
V\u9632\u57ce
p7899
sa(dp7900
Vname
p7901
V\u4e1c\u5174
p7902
sa(dp7903
Vname
p7904
V\u4e0a\u601d
p7905
sasa(dp7906
Vtype
p7907
I0
sVname
p7908
V\u94a6\u5dde
p7909
sVsub
p7910
(lp7911
(dp7912
Vname
p7913
V\u94a6\u5357
p7914
sa(dp7915
Vname
p7916
V\u94a6\u5317
p7917
sa(dp7918
Vname
p7919
V\u7075\u5c71
p7920
sa(dp7921
Vname
p7922
V\u6d66\u5317
p7923
sasa(dp7924
Vtype
p7925
I0
sVname
p7926
V\u8d35\u6e2f
p7927
sVsub
p7928
(lp7929
(dp7930
Vname
p7931
V\u6e2f\u5317
p7932
sa(dp7933
Vname
p7934
V\u6e2f\u5357
p7935
sa(dp7936
Vname
p7937
V\u8983\u5858
p7938
sa(dp7939
Vname
p7940
V\u6842\u5e73
p7941
sa(dp7942
Vname
p7943
V\u5e73\u5357
p7944
sasa(dp7945
Vtype
p7946
I0
sVname
p7947
V\u7389\u6797
p7948
sVsub
p7949
(lp7950
(dp7951
Vname
p7952
V\u7389\u5dde
p7953
sa(dp7954
Vname
p7955
V\u5317\u6d41
p7956
sa(dp7957
Vname
p7958
V\u5bb9
sa(dp7959
Vname
p7960
V\u9646\u5ddd
p7961
sa(dp7962
Vname
p7963
V\u535a\u767d
p7964
sa(dp7965
Vname
p7966
V\u5174\u4e1a
p7967
sasa(dp7968
Vtype
p7969
I0
sVname
p7970
V\u767e\u8272
p7971
sVsub
p7972
(lp7973
(dp7974
Vname
p7975
V\u53f3\u6c5f
p7976
sa(dp7977
Vname
p7978
V\u51cc\u4e91
p7979
sa(dp7980
Vname
p7981
V\u5e73\u679c
p7982
sa(dp7983
Vname
p7984
V\u897f\u6797
p7985
sa(dp7986
Vname
p7987
V\u4e50\u4e1a
p7988
sa(dp7989
Vname
p7990
V\u5fb7\u4fdd
p7991
sa(dp7992
Vname
p7993
V\u7530\u6797
p7994
sa(dp7995
Vname
p7996
V\u7530\u9633
p7997
sa(dp7998
Vname
p7999
V\u9756\u897f
p8000
sa(dp8001
Vname
p8002
V\u7530\u4e1c
p8003
sa(dp8004
Vname
p8005
V\u90a3\u5761
p8006
sa(dp8007
Vname
p8008
V\u9686\u6797\u5404\u65cf\u81ea\u6cbb
p8009
sasa(dp8010
Vtype
p8011
I0
sVname
p8012
V\u8d3a\u5dde
p8013
sVsub
p8014
(lp8015
(dp8016
Vname
p8017
V\u516b\u6b65
p8018
sa(dp8019
Vname
p8020
V\u949f\u5c71
p8021
sa(dp8022
Vname
p8023
V\u662d\u5e73
p8024
sa(dp8025
Vname
p8026
V\u5bcc\u5ddd\u7476\u65cf\u81ea\u6cbb
p8027
sasa(dp8028
Vtype
p8029
I0
sVname
p8030
V\u6cb3\u6c60
p8031
sVsub
p8032
(lp8033
(dp8034
Vname
p8035
V\u91d1\u57ce\u6c5f
p8036
sa(dp8037
Vname
p8038
V\u5b9c\u5dde
p8039
sa(dp8040
Vname
p8041
V\u5929\u5ce8
p8042
sa(dp8043
Vname
p8044
V\u51e4\u5c71
p8045
sa(dp8046
Vname
p8047
V\u5357\u4e39
p8048
sa(dp8049
Vname
p8050
V\u4e1c\u5170
p8051
sa(dp8052
Vname
p8053
V\u90fd\u5b89\u7476\u65cf\u81ea\u6cbb
p8054
sa(dp8055
Vname
p8056
V\u7f57\u57ce\u4eeb\u4f6c\u65cf\u81ea\u6cbb
p8057
sa(dp8058
Vname
p8059
V\u5df4\u9a6c\u7476\u65cf\u81ea\u6cbb
p8060
sa(dp8061
Vname
p8062
V\u73af\u6c5f\u6bdb\u5357\u65cf\u81ea\u6cbb
p8063
sa(dp8064
Vname
p8065
V\u5927\u5316\u7476\u65cf\u81ea\u6cbb
p8066
sasa(dp8067
Vtype
p8068
I0
sVname
p8069
V\u6765\u5bbe
p8070
sVsub
p8071
(lp8072
(dp8073
Vname
p8074
V\u5174\u5bbe
p8075
sa(dp8076
Vname
p8077
V\u5408\u5c71
p8078
sa(dp8079
Vname
p8080
V\u8c61\u5dde
p8081
sa(dp8082
Vname
p8083
V\u6b66\u5ba3
p8084
sa(dp8085
Vname
p8086
V\u5ffb\u57ce
p8087
sa(dp8088
Vname
p8089
V\u91d1\u79c0\u7476\u65cf\u81ea\u6cbb
p8090
sasa(dp8091
Vtype
p8092
I0
sVname
p8093
V\u5d07\u5de6
p8094
sVsub
p8095
(lp8096
(dp8097
Vname
p8098
V\u6c5f\u5dde
p8099
sa(dp8100
Vname
p8101
V\u51ed\u7965
p8102
sa(dp8103
Vname
p8104
V\u5b81\u660e
p8105
sa(dp8106
Vname
p8107
V\u6276\u7ee5
p8108
sa(dp8109
Vname
p8110
V\u9f99\u5dde
p8111
sa(dp8112
Vname
p8113
V\u5927\u65b0
p8114
sa(dp8115
Vname
p8116
V\u5929\u7b49
p8117
sasasa(dp8118
Vtype
p8119
I1
sVname
p8120
V\u6c5f\u897f
p8121
sVsub
p8122
(lp8123
(dp8124
Vtype
p8125
I0
sVname
p8126
V\u5357\u660c
p8127
sVsub
p8128
(lp8129
(dp8130
Vname
p8131
V\u4e1c\u6e56
p8132
sa(dp8133
Vname
p8134
V\u897f\u6e56
p8135
sa(dp8136
Vname
p8137
V\u9752\u4e91\u8c31
p8138
sa(dp8139
Vname
p8140
V\u6e7e\u91cc
p8141
sa(dp8142
Vname
p8143
V\u9752\u5c71\u6e56
p8144
sa(dp8145
Vname
p8146
V\u65b0\u5efa
p8147
sa(dp8148
Vname
p8149
V\u5357\u660c
p8150
sa(dp8151
Vname
p8152
V\u8fdb\u8d24
p8153
sa(dp8154
Vname
p8155
V\u5b89\u4e49
p8156
sasa(dp8157
Vtype
p8158
I0
sVname
p8159
V\u666f\u5fb7\u9547
p8160
sVsub
p8161
(lp8162
(dp8163
Vname
p8164
V\u73e0\u5c71
p8165
sa(dp8166
Vname
p8167
V\u660c\u6c5f
p8168
sa(dp8169
Vname
p8170
V\u4e50\u5e73
p8171
sa(dp8172
Vname
p8173
V\u6d6e\u6881
p8174
sasa(dp8175
Vtype
p8176
I0
sVname
p8177
V\u840d\u4e61
p8178
sVsub
p8179
(lp8180
(dp8181
Vname
p8182
V\u5b89\u6e90
p8183
sa(dp8184
Vname
p8185
V\u6e58\u4e1c
p8186
sa(dp8187
Vname
p8188
V\u83b2\u82b1
p8189
sa(dp8190
Vname
p8191
V\u4e0a\u6817
p8192
sa(dp8193
Vname
p8194
V\u82a6\u6eaa
p8195
sasa(dp8196
Vtype
p8197
I0
sVname
p8198
V\u4e5d\u6c5f
p8199
sVsub
p8200
(lp8201
(dp8202
Vname
p8203
V\u6d54\u9633
p8204
sa(dp8205
Vname
p8206
V\u5e90\u5c71
p8207
sa(dp8208
Vname
p8209
V\u745e\u660c
p8210
sa(dp8211
Vname
p8212
V\u4e5d\u6c5f
p8213
sa(dp8214
Vname
p8215
V\u661f\u5b50
p8216
sa(dp8217
Vname
p8218
V\u6b66\u5b81
p8219
sa(dp8220
Vname
p8221
V\u5f6d\u6cfd
p8222
sa(dp8223
Vname
p8224
V\u6c38\u4fee
p8225
sa(dp8226
Vname
p8227
V\u4fee\u6c34
p8228
sa(dp8229
Vname
p8230
V\u6e56\u53e3
p8231
sa(dp8232
Vname
p8233
V\u5fb7\u5b89
p8234
sa(dp8235
Vname
p8236
V\u90fd\u660c
p8237
sasa(dp8238
Vtype
p8239
I0
sVname
p8240
V\u65b0\u4f59
p8241
sVsub
p8242
(lp8243
(dp8244
Vname
p8245
V\u6e1d\u6c34
p8246
sa(dp8247
Vname
p8248
V\u5206\u5b9c
p8249
sasa(dp8250
Vtype
p8251
I0
sVname
p8252
V\u9e70\u6f6d
p8253
sVsub
p8254
(lp8255
(dp8256
Vname
p8257
V\u6708\u6e56
p8258
sa(dp8259
Vname
p8260
V\u8d35\u6eaa
p8261
sa(dp8262
Vname
p8263
V\u4f59\u6c5f
p8264
sasa(dp8265
Vtype
p8266
I0
sVname
p8267
V\u8d63\u5dde
p8268
sVsub
p8269
(lp8270
(dp8271
Vname
p8272
V\u7ae0\u8d21
p8273
sa(dp8274
Vname
p8275
V\u745e\u91d1
p8276
sa(dp8277
Vname
p8278
V\u5357\u5eb7
p8279
sa(dp8280
Vname
p8281
V\u77f3\u57ce
p8282
sa(dp8283
Vname
p8284
V\u5b89\u8fdc
p8285
sa(dp8286
Vname
p8287
V\u8d63
sa(dp8288
Vname
p8289
V\u5b81\u90fd
p8290
sa(dp8291
Vname
p8292
V\u5bfb\u4e4c
p8293
sa(dp8294
Vname
p8295
V\u5174\u56fd
p8296
sa(dp8297
Vname
p8298
V\u5b9a\u5357
p8299
sa(dp8300
Vname
p8301
V\u4e0a\u72b9
p8302
sa(dp8303
Vname
p8304
V\u4e8e\u90fd
p8305
sa(dp8306
Vname
p8307
V\u9f99\u5357
p8308
sa(dp8309
Vname
p8310
V\u5d07\u4e49
p8311
sa(dp8312
Vname
p8313
V\u4fe1\u4e30
p8314
sa(dp8315
Vname
p8316
V\u5168\u5357
p8317
sa(dp8318
Vname
p8319
V\u5927\u4f59
p8320
sa(dp8321
Vname
p8322
V\u4f1a\u660c
p8323
sasa(dp8324
Vtype
p8325
I0
sVname
p8326
V\u5409\u5b89
p8327
sVsub
p8328
(lp8329
(dp8330
Vname
p8331
V\u5409\u5dde
p8332
sa(dp8333
Vname
p8334
V\u9752\u539f
p8335
sa(dp8336
Vname
p8337
V\u4e95\u5188\u5c71
p8338
sa(dp8339
Vname
p8340
V\u5409\u5b89
p8341
sa(dp8342
Vname
p8343
V\u6c38\u4e30
p8344
sa(dp8345
Vname
p8346
V\u6c38\u65b0
p8347
sa(dp8348
Vname
p8349
V\u65b0\u5e72
p8350
sa(dp8351
Vname
p8352
V\u6cf0\u548c
p8353
sa(dp8354
Vname
p8355
V\u5ce1\u6c5f
p8356
sa(dp8357
Vname
p8358
V\u9042\u5ddd
p8359
sa(dp8360
Vname
p8361
V\u5b89\u798f
p8362
sa(dp8363
Vname
p8364
V\u5409\u6c34
p8365
sa(dp8366
Vname
p8367
V\u4e07\u5b89
p8368
sasa(dp8369
Vtype
p8370
I0
sVname
p8371
V\u5b9c\u6625
p8372
sVsub
p8373
(lp8374
(dp8375
Vname
p8376
V\u8881\u5dde
p8377
sa(dp8378
Vname
p8379
V\u4e30\u57ce
p8380
sa(dp8381
Vname
p8382
V\u6a1f\u6811
p8383
sa(dp8384
Vname
p8385
V\u9ad8\u5b89
p8386
sa(dp8387
Vname
p8388
V\u94dc\u9f13
p8389
sa(dp8390
Vname
p8391
V\u9756\u5b89
p8392
sa(dp8393
Vname
p8394
V\u5b9c\u4e30
p8395
sa(dp8396
Vname
p8397
V\u5949\u65b0
p8398
sa(dp8399
Vname
p8400
V\u4e07\u8f7d
p8401
sa(dp8402
Vname
p8403
V\u4e0a\u9ad8
p8404
sasa(dp8405
Vtype
p8406
I0
sVname
p8407
V\u629a\u5dde
p8408
sVsub
p8409
(lp8410
(dp8411
Vname
p8412
V\u4e34\u5ddd
p8413
sa(dp8414
Vname
p8415
V\u5357\u4e30
p8416
sa(dp8417
Vname
p8418
V\u4e50\u5b89
p8419
sa(dp8420
Vname
p8421
V\u91d1\u6eaa
p8422
sa(dp8423
Vname
p8424
V\u5357\u57ce
p8425
sa(dp8426
Vname
p8427
V\u4e1c\u4e61
p8428
sa(dp8429
Vname
p8430
V\u8d44\u6eaa
p8431
sa(dp8432
Vname
p8433
V\u5b9c\u9ec4
p8434
sa(dp8435
Vname
p8436
V\u5e7f\u660c
p8437
sa(dp8438
Vname
p8439
V\u9ece\u5ddd
p8440
sa(dp8441
Vname
p8442
V\u5d07\u4ec1
p8443
sasa(dp8444
Vtype
p8445
I0
sVname
p8446
V\u4e0a\u9976
p8447
sVsub
p8448
(lp8449
(dp8450
Vname
p8451
V\u4fe1\u5dde
p8452
sa(dp8453
Vname
p8454
V\u5fb7\u5174
p8455
sa(dp8456
Vname
p8457
V\u4e0a\u9976
p8458
sa(dp8459
Vname
p8460
V\u5e7f\u4e30
p8461
sa(dp8462
Vname
p8463
V\u9131\u9633
p8464
sa(dp8465
Vname
p8466
V\u5a7a\u6e90
p8467
sa(dp8468
Vname
p8469
V\u94c5\u5c71
p8470
sa(dp8471
Vname
p8472
V\u4f59\u5e72
p8473
sa(dp8474
Vname
p8475
V\u6a2a\u5cf0
p8476
sa(dp8477
Vname
p8478
V\u5f0b\u9633
p8479
sa(dp8480
Vname
p8481
V\u7389\u5c71
p8482
sa(dp8483
Vname
p8484
V\u4e07\u5e74
p8485
sasasa(dp8486
Vtype
p8487
I1
sVname
p8488
V\u8d35\u5dde
p8489
sVsub
p8490
(lp8491
(dp8492
Vtype
p8493
I0
sVname
p8494
V\u8d35\u9633
p8495
sVsub
p8496
(lp8497
(dp8498
Vname
p8499
V\u5357\u660e
p8500
sa(dp8501
Vname
p8502
V\u4e91\u5ca9
p8503
sa(dp8504
Vname
p8505
V\u82b1\u6eaa
p8506
sa(dp8507
Vname
p8508
V\u4e4c\u5f53
p8509
sa(dp8510
Vname
p8511
V\u767d\u4e91
p8512
sa(dp8513
Vname
p8514
V\u5c0f\u6cb3
p8515
sa(dp8516
Vname
p8517
V\u6e05\u9547
p8518
sa(dp8519
Vname
p8520
V\u5f00\u9633
p8521
sa(dp8522
Vname
p8523
V\u4fee\u6587
p8524
sa(dp8525
Vname
p8526
V\u606f\u70fd
p8527
sasa(dp8528
Vtype
p8529
I0
sVname
p8530
V\u516d\u76d8\u6c34
p8531
sVsub
p8532
(lp8533
(dp8534
Vname
p8535
V\u949f\u5c71
p8536
sa(dp8537
Vname
p8538
V\u6c34\u57ce
p8539
sa(dp8540
Vname
p8541
V\u76d8
sa(dp8542
Vname
p8543
V\u516d\u679d\u7279
p8544
sasa(dp8545
Vtype
p8546
I0
sVname
p8547
V\u9075\u4e49
p8548
sVsub
p8549
(lp8550
(dp8551
Vname
p8552
V\u7ea2\u82b1\u5c97
p8553
sa(dp8554
Vname
p8555
V\u6c47\u5ddd
p8556
sa(dp8557
Vname
p8558
V\u8d64\u6c34
p8559
sa(dp8560
Vname
p8561
V\u4ec1\u6000
p8562
sa(dp8563
Vname
p8564
V\u9075\u4e49
p8565
sa(dp8566
Vname
p8567
V\u7ee5\u9633
p8568
sa(dp8569
Vname
p8570
V\u6850\u6893
p8571
sa(dp8572
Vname
p8573
V\u4e60\u6c34
p8574
sa(dp8575
Vname
p8576
V\u51e4\u5188
p8577
sa(dp8578
Vname
p8579
V\u6b63\u5b89
p8580
sa(dp8581
Vname
p8582
V\u4f59\u5e86
p8583
sa(dp8584
Vname
p8585
V\u6e44\u6f6d
p8586
sa(dp8587
Vname
p8588
V\u9053\u771f\u4ee1\u4f6c\u65cf\u82d7\u65cf\u81ea\u6cbb
p8589
sa(dp8590
Vname
p8591
V\u52a1\u5ddd\u4ee1\u4f6c\u65cf\u82d7\u65cf\u81ea\u6cbb
p8592
sasa(dp8593
Vtype
p8594
I0
sVname
p8595
V\u5b89\u987a
p8596
sVsub
p8597
(lp8598
(dp8599
Vname
p8600
V\u897f\u79c0
p8601
sa(dp8602
Vname
p8603
V\u666e\u5b9a
p8604
sa(dp8605
Vname
p8606
V\u5e73\u575d
p8607
sa(dp8608
Vname
p8609
V\u9547\u5b81\u5e03\u4f9d\u65cf\u82d7\u65cf\u81ea\u6cbb
p8610
sa(dp8611
Vname
p8612
V\u7d2b\u4e91\u82d7\u65cf\u5e03\u4f9d\u65cf\u81ea\u6cbb
p8613
sa(dp8614
Vname
p8615
V\u5173\u5cad\u5e03\u4f9d\u65cf\u82d7\u65cf\u81ea\u6cbb
p8616
sasa(dp8617
Vtype
p8618
I0
sVname
p8619
V\u94dc\u4ec1\u5730
p8620
sVsub
p8621
(lp8622
(dp8623
Vname
p8624
V\u94dc\u4ec1
p8625
sa(dp8626
Vname
p8627
V\u5fb7\u6c5f
p8628
sa(dp8629
Vname
p8630
V\u6c5f\u53e3
p8631
sa(dp8632
Vname
p8633
V\u601d\u5357
p8634
sa(dp8635
Vname
p8636
V\u77f3\u9621
p8637
sa(dp8638
Vname
p8639
V\u7389\u5c4f\u4f97\u65cf\u81ea\u6cbb
p8640
sa(dp8641
Vname
p8642
V\u677e\u6843\u82d7\u65cf\u81ea\u6cbb
p8643
sa(dp8644
Vname
p8645
V\u5370\u6c5f\u571f\u5bb6\u65cf\u82d7\u65cf\u81ea\u6cbb
p8646
sa(dp8647
Vname
p8648
V\u6cbf\u6cb3\u571f\u5bb6\u65cf\u81ea\u6cbb
p8649
sa(dp8650
Vname
p8651
V\u4e07\u5c71\u7279
p8652
sasa(dp8653
Vtype
p8654
I0
sVname
p8655
V\u6bd5\u8282\u5730
p8656
sVsub
p8657
(lp8658
(dp8659
Vname
p8660
V\u6bd5\u8282
p8661
sa(dp8662
Vname
p8663
V\u9ed4\u897f
p8664
sa(dp8665
Vname
p8666
V\u5927\u65b9
p8667
sa(dp8668
Vname
p8669
V\u7ec7\u91d1
p8670
sa(dp8671
Vname
p8672
V\u91d1\u6c99
p8673
sa(dp8674
Vname
p8675
V\u8d6b\u7ae0
p8676
sa(dp8677
Vname
p8678
V\u7eb3\u96cd
p8679
sa(dp8680
Vname
p8681
V\u5a01\u5b81\u5f5d\u65cf\u56de\u65cf\u82d7\u65cf\u81ea\u6cbb
p8682
sasa(dp8683
Vtype
p8684
I0
sVname
p8685
V\u9ed4\u897f\u5357\u5e03\u4f9d\u65cf\u82d7\u65cf\u81ea\u6cbb\u5dde
p8686
sVsub
p8687
(lp8688
(dp8689
Vname
p8690
V\u5174\u4e49
p8691
sa(dp8692
Vname
p8693
V\u671b\u8c1f
p8694
sa(dp8695
Vname
p8696
V\u5174\u4ec1
p8697
sa(dp8698
Vname
p8699
V\u666e\u5b89
p8700
sa(dp8701
Vname
p8702
V\u518c\u4ea8
p8703
sa(dp8704
Vname
p8705
V\u6674\u9686
p8706
sa(dp8707
Vname
p8708
V\u8d1e\u4e30
p8709
sa(dp8710
Vname
p8711
V\u5b89\u9f99
p8712
sasa(dp8713
Vtype
p8714
I0
sVname
p8715
V\u9ed4\u4e1c\u5357\u82d7\u65cf\u4f97\u65cf\u81ea\u6cbb\u5dde
p8716
sVsub
p8717
(lp8718
(dp8719
Vname
p8720
V\u51ef\u91cc
p8721
sa(dp8722
Vname
p8723
V\u65bd\u79c9
p8724
sa(dp8725
Vname
p8726
V\u4ece\u6c5f
p8727
sa(dp8728
Vname
p8729
V\u9526\u5c4f
p8730
sa(dp8731
Vname
p8732
V\u9547\u8fdc
p8733
sa(dp8734
Vname
p8735
V\u9ebb\u6c5f
p8736
sa(dp8737
Vname
p8738
V\u53f0\u6c5f
p8739
sa(dp8740
Vname
p8741
V\u5929\u67f1
p8742
sa(dp8743
Vname
p8744
V\u9ec4\u5e73
p8745
sa(dp8746
Vname
p8747
V\u6995\u6c5f
p8748
sa(dp8749
Vname
p8750
V\u5251\u6cb3
p8751
sa(dp8752
Vname
p8753
V\u4e09\u7a57
p8754
sa(dp8755
Vname
p8756
V\u96f7\u5c71
p8757
sa(dp8758
Vname
p8759
V\u9ece\u5e73
p8760
sa(dp8761
Vname
p8762
V\u5c91\u5de9
p8763
sa(dp8764
Vname
p8765
V\u4e39\u5be8
p8766
sasa(dp8767
Vtype
p8768
I0
sVname
p8769
V\u9ed4\u5357\u5e03\u4f9d\u65cf\u82d7\u65cf\u81ea\u6cbb\u5dde
p8770
sVsub
p8771
(lp8772
(dp8773
Vname
p8774
V\u90fd\u5300
p8775
sa(dp8776
Vname
p8777
V\u798f\u6cc9
p8778
sa(dp8779
Vname
p8780
V\u8d35\u5b9a
p8781
sa(dp8782
Vname
p8783
V\u60e0\u6c34
p8784
sa(dp8785
Vname
p8786
V\u7f57\u7538
p8787
sa(dp8788
Vname
p8789
V\u74ee\u5b89
p8790
sa(dp8791
Vname
p8792
V\u8354\u6ce2
p8793
sa(dp8794
Vname
p8795
V\u9f99\u91cc
p8796
sa(dp8797
Vname
p8798
V\u5e73\u5858
p8799
sa(dp8800
Vname
p8801
V\u957f\u987a
p8802
sa(dp8803
Vname
p8804
V\u72ec\u5c71
p8805
sa(dp8806
Vname
p8807
V\u4e09\u90fd\u6c34\u65cf\u81ea\u6cbb
p8808
sasasa(dp8809
Vtype
p8810
I1
sVname
p8811
V\u4e91\u5357
p8812
sVsub
p8813
(lp8814
(dp8815
Vtype
p8816
I0
sVname
p8817
V\u6606\u660e
p8818
sVsub
p8819
(lp8820
(dp8821
Vname
p8822
V\u76d8\u9f99
p8823
sa(dp8824
Vname
p8825
V\u4e94\u534e
p8826
sa(dp8827
Vname
p8828
V\u5b98\u6e21
p8829
sa(dp8830
Vname
p8831
V\u897f\u5c71
p8832
sa(dp8833
Vname
p8834
V\u4e1c\u5ddd
p8835
sa(dp8836
Vname
p8837
V\u5b89\u5b81
p8838
sa(dp8839
Vname
p8840
V\u5448\u8d21
p8841
sa(dp8842
Vname
p8843
V\u664b\u5b81
p8844
sa(dp8845
Vname
p8846
V\u5bcc\u6c11
p8847
sa(dp8848
Vname
p8849
V\u5b9c\u826f
p8850
sa(dp8851
Vname
p8852
V\u5d69\u660e
p8853
sa(dp8854
Vname
p8855
V\u77f3\u6797\u5f5d\u65cf\u81ea\u6cbb
p8856
sa(dp8857
Vname
p8858
V\u7984\u529d\u5f5d\u65cf\u82d7\u65cf\u81ea\u6cbb
p8859
sa(dp8860
Vname
p8861
V\u5bfb\u7538\u56de\u65cf\u5f5d\u65cf\u81ea\u6cbb
p8862
sasa(dp8863
Vtype
p8864
I0
sVname
p8865
V\u66f2\u9756
p8866
sVsub
p8867
(lp8868
(dp8869
Vname
p8870
V\u9e92\u9e9f
p8871
sa(dp8872
Vname
p8873
V\u5ba3\u5a01
p8874
sa(dp8875
Vname
p8876
V\u9a6c\u9f99
p8877
sa(dp8878
Vname
p8879
V\u6cbe\u76ca
p8880
sa(dp8881
Vname
p8882
V\u5bcc\u6e90
p8883
sa(dp8884
Vname
p8885
V\u7f57\u5e73
p8886
sa(dp8887
Vname
p8888
V\u5e08\u5b97
p8889
sa(dp8890
Vname
p8891
V\u9646\u826f
p8892
sa(dp8893
Vname
p8894
V\u4f1a\u6cfd
p8895
sasa(dp8896
Vtype
p8897
I0
sVname
p8898
V\u7389\u6eaa
p8899
sVsub
p8900
(lp8901
(dp8902
Vname
p8903
V\u7ea2\u5854
p8904
sa(dp8905
Vname
p8906
V\u6c5f\u5ddd
p8907
sa(dp8908
Vname
p8909
V\u6f84\u6c5f
p8910
sa(dp8911
Vname
p8912
V\u901a\u6d77
p8913
sa(dp8914
Vname
p8915
V\u534e\u5b81
p8916
sa(dp8917
Vname
p8918
V\u6613\u95e8
p8919
sa(dp8920
Vname
p8921
V\u5ce8\u5c71\u5f5d\u65cf\u81ea\u6cbb
p8922
sa(dp8923
Vname
p8924
V\u65b0\u5e73\u5f5d\u65cf\u50a3\u65cf\u81ea\u6cbb
p8925
sa(dp8926
Vname
p8927
V\u5143\u6c5f\u54c8\u5c3c\u65cf\u5f5d\u65cf\u50a3\u65cf\u81ea\u6cbb
p8928
sasa(dp8929
Vtype
p8930
I0
sVname
p8931
V\u4fdd\u5c71
p8932
sVsub
p8933
(lp8934
(dp8935
Vname
p8936
V\u9686\u9633
p8937
sa(dp8938
Vname
p8939
V\u65bd\u7538
p8940
sa(dp8941
Vname
p8942
V\u817e\u51b2
p8943
sa(dp8944
Vname
p8945
V\u9f99\u9675
p8946
sa(dp8947
Vname
p8948
V\u660c\u5b81
p8949
sasa(dp8950
Vtype
p8951
I0
sVname
p8952
V\u662d\u901a
p8953
sVsub
p8954
(lp8955
(dp8956
Vname
p8957
V\u662d\u9633
p8958
sa(dp8959
Vname
p8960
V\u9c81\u7538
p8961
sa(dp8962
Vname
p8963
V\u5de7\u5bb6
p8964
sa(dp8965
Vname
p8966
V\u76d0\u6d25
p8967
sa(dp8968
Vname
p8969
V\u5927\u5173
p8970
sa(dp8971
Vname
p8972
V\u6c38\u5584
p8973
sa(dp8974
Vname
p8975
V\u7ee5\u6c5f
p8976
sa(dp8977
Vname
p8978
V\u9547\u96c4
p8979
sa(dp8980
Vname
p8981
V\u5f5d\u826f
p8982
sa(dp8983
Vname
p8984
V\u5a01\u4fe1
p8985
sa(dp8986
Vname
p8987
V\u6c34\u5bcc
p8988
sasa(dp8989
Vtype
p8990
I0
sVname
p8991
V\u4e3d\u6c5f
p8992
sVsub
p8993
(lp8994
(dp8995
Vname
p8996
V\u53e4\u57ce
p8997
sa(dp8998
Vname
p8999
V\u6c38\u80dc
p9000
sa(dp9001
Vname
p9002
V\u534e\u576a
p9003
sa(dp9004
Vname
p9005
V\u7389\u9f99\u7eb3\u897f\u65cf\u81ea\u6cbb
p9006
sa(dp9007
Vname
p9008
V\u5b81\u8497\u5f5d\u65cf\u81ea\u6cbb
p9009
sasa(dp9010
Vtype
p9011
I0
sVname
p9012
V\u666e\u6d31
p9013
sVsub
p9014
(lp9015
(dp9016
Vname
p9017
V\u601d\u8305
p9018
sa(dp9019
Vname
p9020
V\u666e\u6d31\u54c8\u5c3c\u65cf\u5f5d\u65cf\u81ea\u6cbb
p9021
sa(dp9022
Vname
p9023
V\u58a8\u6c5f\u54c8\u5c3c\u65cf\u81ea\u6cbb
p9024
sa(dp9025
Vname
p9026
V\u666f\u4e1c\u5f5d\u65cf\u81ea\u6cbb
p9027
sa(dp9028
Vname
p9029
V\u666f\u8c37\u50a3\u65cf\u5f5d\u65cf\u81ea\u6cbb
p9030
sa(dp9031
Vname
p9032
V\u9547\u6c85\u5f5d\u65cf\u54c8\u5c3c\u65cf\u62c9\u795c\u65cf\u81ea\u6cbb
p9033
sa(dp9034
Vname
p9035
V\u6c5f\u57ce\u54c8\u5c3c\u65cf\u5f5d\u65cf\u81ea\u6cbb
p9036
sa(dp9037
Vname
p9038
V\u5b5f\u8fde\u50a3\u65cf\u62c9\u795c\u65cf\u4f64\u65cf\u81ea\u6cbb
p9039
sa(dp9040
Vname
p9041
V\u6f9c\u6ca7\u62c9\u795c\u65cf\u81ea\u6cbb
p9042
sa(dp9043
Vname
p9044
V\u897f\u76df\u4f64\u65cf\u81ea\u6cbb
p9045
sasa(dp9046
Vtype
p9047
I0
sVname
p9048
V\u4e34\u6ca7
p9049
sVsub
p9050
(lp9051
(dp9052
Vname
p9053
V\u4e34\u7fd4
p9054
sa(dp9055
Vname
p9056
V\u51e4\u5e86
p9057
sa(dp9058
Vname
p9059
V\u4e91
sa(dp9060
Vname
p9061
V\u6c38\u5fb7
p9062
sa(dp9063
Vname
p9064
V\u9547\u5eb7
p9065
sa(dp9066
Vname
p9067
V\u53cc\u6c5f\u62c9\u795c\u65cf\u4f64\u65cf\u5e03\u6717\u65cf\u50a3\u65cf\u81ea\u6cbb
p9068
sa(dp9069
Vname
p9070
V\u803f\u9a6c\u50a3\u65cf\u4f64\u65cf\u81ea\u6cbb
p9071
sa(dp9072
Vname
p9073
V\u6ca7\u6e90\u4f64\u65cf\u81ea\u6cbb
p9074
sasa(dp9075
Vtype
p9076
I0
sVname
p9077
V\u5fb7\u5b8f\u50a3\u65cf\u666f\u9887\u65cf\u81ea\u6cbb\u5dde
p9078
sVsub
p9079
(lp9080
(dp9081
Vname
p9082
V\u6f5e\u897f
p9083
sa(dp9084
Vname
p9085
V\u745e\u4e3d
p9086
sa(dp9087
Vname
p9088
V\u6881\u6cb3
p9089
sa(dp9090
Vname
p9091
V\u76c8\u6c5f
p9092
sa(dp9093
Vname
p9094
V\u9647\u5ddd
p9095
sasa(dp9096
Vtype
p9097
I0
sVname
p9098
V\u6012\u6c5f\u5088\u50f3\u65cf\u81ea\u6cbb\u5dde
p9099
sVsub
p9100
(lp9101
(dp9102
Vname
p9103
V\u6cf8\u6c34
p9104
sa(dp9105
Vname
p9106
V\u798f\u8d21
p9107
sa(dp9108
Vname
p9109
V\u8d21\u5c71\u72ec\u9f99\u65cf\u6012\u65cf\u81ea\u6cbb
p9110
sa(dp9111
Vname
p9112
V\u5170\u576a\u767d\u65cf\u666e\u7c73\u65cf\u81ea\u6cbb
p9113
sasa(dp9114
Vtype
p9115
I0
sVname
p9116
V\u8fea\u5e86\u85cf\u65cf\u81ea\u6cbb\u5dde
p9117
sVsub
p9118
(lp9119
(dp9120
Vname
p9121
V\u9999\u683c\u91cc\u62c9
p9122
sa(dp9123
Vname
p9124
V\u5fb7\u94a6
p9125
sa(dp9126
Vname
p9127
V\u7ef4\u897f\u5088\u50f3\u65cf\u81ea\u6cbb
p9128
sasa(dp9129
Vtype
p9130
I0
sVname
p9131
V\u5927\u7406\u767d\u65cf\u81ea\u6cbb\u5dde
p9132
sVsub
p9133
(lp9134
(dp9135
Vname
p9136
V\u5927\u7406
p9137
sa(dp9138
Vname
p9139
V\u7965\u4e91
p9140
sa(dp9141
Vname
p9142
V\u5bbe\u5ddd
p9143
sa(dp9144
Vname
p9145
V\u5f25\u6e21
p9146
sa(dp9147
Vname
p9148
V\u6c38\u5e73
p9149
sa(dp9150
Vname
p9151
V\u4e91\u9f99
p9152
sa(dp9153
Vname
p9154
V\u6d31\u6e90
p9155
sa(dp9156
Vname
p9157
V\u5251\u5ddd
p9158
sa(dp9159
Vname
p9160
V\u9e64\u5e86
p9161
sa(dp9162
Vname
p9163
V\u6f3e\u6fde\u5f5d\u65cf\u81ea\u6cbb
p9164
sa(dp9165
Vname
p9166
V\u5357\u6da7\u5f5d\u65cf\u81ea\u6cbb
p9167
sa(dp9168
Vname
p9169
V\u5dcd\u5c71\u5f5d\u65cf\u56de\u65cf\u81ea\u6cbb
p9170
sasa(dp9171
Vtype
p9172
I0
sVname
p9173
V\u695a\u96c4\u5f5d\u65cf\u81ea\u6cbb\u5dde
p9174
sVsub
p9175
(lp9176
(dp9177
Vname
p9178
V\u695a\u96c4
p9179
sa(dp9180
Vname
p9181
V\u53cc\u67cf
p9182
sa(dp9183
Vname
p9184
V\u725f\u5b9a
p9185
sa(dp9186
Vname
p9187
V\u5357\u534e
p9188
sa(dp9189
Vname
p9190
V\u59da\u5b89
p9191
sa(dp9192
Vname
p9193
V\u5927\u59da
p9194
sa(dp9195
Vname
p9196
V\u6c38\u4ec1
p9197
sa(dp9198
Vname
p9199
V\u5143\u8c0b
p9200
sa(dp9201
Vname
p9202
V\u6b66\u5b9a
p9203
sa(dp9204
Vname
p9205
V\u7984\u4e30
p9206
sasa(dp9207
Vtype
p9208
I0
sVname
p9209
V\u7ea2\u6cb3\u54c8\u5c3c\u65cf\u5f5d\u65cf\u81ea\u6cbb\u5dde
p9210
sVsub
p9211
(lp9212
(dp9213
Vname
p9214
V\u8499\u81ea
p9215
sa(dp9216
Vname
p9217
V\u4e2a\u65e7
p9218
sa(dp9219
Vname
p9220
V\u5f00\u8fdc
p9221
sa(dp9222
Vname
p9223
V\u7eff\u6625
p9224
sa(dp9225
Vname
p9226
V\u5efa\u6c34
p9227
sa(dp9228
Vname
p9229
V\u77f3\u5c4f
p9230
sa(dp9231
Vname
p9232
V\u5f25\u52d2
p9233
sa(dp9234
Vname
p9235
V\u6cf8\u897f
p9236
sa(dp9237
Vname
p9238
V\u5143\u9633
p9239
sa(dp9240
Vname
p9241
V\u7ea2\u6cb3
p9242
sa(dp9243
Vname
p9244
V\u91d1\u5e73\u82d7\u65cf\u7476\u65cf\u50a3\u65cf\u81ea\u6cbb
p9245
sa(dp9246
Vname
p9247
V\u6cb3\u53e3\u7476\u65cf\u81ea\u6cbb
p9248
sa(dp9249
Vname
p9250
V\u5c4f\u8fb9\u82d7\u65cf\u81ea\u6cbb
p9251
sasa(dp9252
Vtype
p9253
I0
sVname
p9254
V\u6587\u5c71\u58ee\u65cf\u82d7\u65cf\u81ea\u6cbb\u5dde
p9255
sVsub
p9256
(lp9257
(dp9258
Vname
p9259
V\u6587\u5c71
p9260
sa(dp9261
Vname
p9262
V\u781a\u5c71
p9263
sa(dp9264
Vname
p9265
V\u897f\u7574
p9266
sa(dp9267
Vname
p9268
V\u9ebb\u6817\u5761
p9269
sa(dp9270
Vname
p9271
V\u9a6c\u5173
p9272
sa(dp9273
Vname
p9274
V\u4e18\u5317
p9275
sa(dp9276
Vname
p9277
V\u5e7f\u5357
p9278
sa(dp9279
Vname
p9280
V\u5bcc\u5b81
p9281
sasa(dp9282
Vtype
p9283
I0
sVname
p9284
V\u897f\u53cc\u7248\u7eb3\u50a3\u65cf\u81ea\u6cbb\u5dde
p9285
sVsub
p9286
(lp9287
(dp9288
Vname
p9289
V\u666f\u6d2a
p9290
sa(dp9291
Vname
p9292
V\u52d0\u6d77
p9293
sa(dp9294
Vname
p9295
V\u52d0\u814a
p9296
sasasa(dp9297
Vtype
p9298
I1
sVname
p9299
V\u897f\u85cf
p9300
sVsub
p9301
(lp9302
(dp9303
Vtype
p9304
I0
sVname
p9305
V\u62c9\u8428
p9306
sVsub
p9307
(lp9308
(dp9309
Vname
p9310
V\u57ce\u5173
p9311
sa(dp9312
Vname
p9313
V\u6797\u5468
p9314
sa(dp9315
Vname
p9316
V\u5f53\u96c4
p9317
sa(dp9318
Vname
p9319
V\u5c3c\u6728
p9320
sa(dp9321
Vname
p9322
V\u66f2\u6c34
p9323
sa(dp9324
Vname
p9325
V\u5806\u9f99\u5fb7\u5e86
p9326
sa(dp9327
Vname
p9328
V\u8fbe\u5b5c
p9329
sa(dp9330
Vname
p9331
V\u58a8\u7af9\u5de5\u5361
p9332
sasa(dp9333
Vtype
p9334
I0
sVname
p9335
V\u90a3\u66f2\u5730
p9336
sVsub
p9337
(lp9338
(dp9339
Vname
p9340
V\u90a3\u66f2
p9341
sa(dp9342
Vname
p9343
V\u5609\u9ece
p9344
sa(dp9345
Vname
p9346
V\u6bd4\u5982
p9347
sa(dp9348
Vname
p9349
V\u8042\u8363
p9350
sa(dp9351
Vname
p9352
V\u5b89\u591a
p9353
sa(dp9354
Vname
p9355
V\u7533\u624e
p9356
sa(dp9357
Vname
p9358
V\u7d22
sa(dp9359
Vname
p9360
V\u73ed\u6208
p9361
sa(dp9362
Vname
p9363
V\u5df4\u9752
p9364
sa(dp9365
Vname
p9366
V\u5c3c\u739b
p9367
sasa(dp9368
Vtype
p9369
I0
sVname
p9370
V\u660c\u90fd\u5730
p9371
sVsub
p9372
(lp9373
(dp9374
Vname
p9375
V\u660c\u90fd
p9376
sa(dp9377
Vname
p9378
V\u6c5f\u8fbe
p9379
sa(dp9380
Vname
p9381
V\u8d21\u89c9
p9382
sa(dp9383
Vname
p9384
V\u7c7b\u4e4c\u9f50
p9385
sa(dp9386
Vname
p9387
V\u4e01\u9752
p9388
sa(dp9389
Vname
p9390
V\u5bdf\u96c5
p9391
sa(dp9392
Vname
p9393
V\u516b\u5bbf
p9394
sa(dp9395
Vname
p9396
V\u5de6\u8d21
p9397
sa(dp9398
Vname
p9399
V\u8292\u5eb7
p9400
sa(dp9401
Vname
p9402
V\u6d1b\u9686
p9403
sa(dp9404
Vname
p9405
V\u8fb9\u575d
p9406
sasa(dp9407
Vtype
p9408
I0
sVname
p9409
V\u6797\u829d\u5730
p9410
sVsub
p9411
(lp9412
(dp9413
Vname
p9414
V\u6797\u829d
p9415
sa(dp9416
Vname
p9417
V\u5de5\u5e03\u6c5f\u8fbe
p9418
sa(dp9419
Vname
p9420
V\u7c73\u6797
p9421
sa(dp9422
Vname
p9423
V\u58a8\u8131
p9424
sa(dp9425
Vname
p9426
V\u6ce2\u5bc6
p9427
sa(dp9428
Vname
p9429
V\u5bdf\u9685
p9430
sa(dp9431
Vname
p9432
V\u6717
sasa(dp9433
Vtype
p9434
I0
sVname
p9435
V\u5c71\u5357\u5730
p9436
sVsub
p9437
(lp9438
(dp9439
Vname
p9440
V\u4e43\u4e1c
p9441
sa(dp9442
Vname
p9443
V\u624e\u56ca
p9444
sa(dp9445
Vname
p9446
V\u8d21\u560e
p9447
sa(dp9448
Vname
p9449
V\u6851\u65e5
p9450
sa(dp9451
Vname
p9452
V\u743c\u7ed3
p9453
sa(dp9454
Vname
p9455
V\u66f2\u677e
p9456
sa(dp9457
Vname
p9458
V\u63aa\u7f8e
p9459
sa(dp9460
Vname
p9461
V\u6d1b\u624e
p9462
sa(dp9463
Vname
p9464
V\u52a0\u67e5
p9465
sa(dp9466
Vname
p9467
V\u9686\u5b50
p9468
sa(dp9469
Vname
p9470
V\u9519\u90a3
p9471
sa(dp9472
Vname
p9473
V\u6d6a\u5361\u5b50
p9474
sasa(dp9475
Vtype
p9476
I0
sVname
p9477
V\u65e5\u5580\u5219\u5730
p9478
sVsub
p9479
(lp9480
(dp9481
Vname
p9482
V\u65e5\u5580\u5219
p9483
sa(dp9484
Vname
p9485
V\u5357\u6728\u6797
p9486
sa(dp9487
Vname
p9488
V\u6c5f\u5b5c
p9489
sa(dp9490
Vname
p9491
V\u5b9a\u65e5
p9492
sa(dp9493
Vname
p9494
V\u8428\u8fe6
p9495
sa(dp9496
Vname
p9497
V\u62c9\u5b5c
p9498
sa(dp9499
Vname
p9500
V\u6602\u4ec1
p9501
sa(dp9502
Vname
p9503
V\u8c22\u901a\u95e8
p9504
sa(dp9505
Vname
p9506
V\u767d\u6717
p9507
sa(dp9508
Vname
p9509
V\u4ec1\u5e03
p9510
sa(dp9511
Vname
p9512
V\u5eb7\u9a6c
p9513
sa(dp9514
Vname
p9515
V\u5b9a\u7ed3
p9516
sa(dp9517
Vname
p9518
V\u4ef2\u5df4
p9519
sa(dp9520
Vname
p9521
V\u4e9a\u4e1c
p9522
sa(dp9523
Vname
p9524
V\u5409\u9686
p9525
sa(dp9526
Vname
p9527
V\u8042\u62c9\u6728
p9528
sa(dp9529
Vname
p9530
V\u8428\u560e
p9531
sa(dp9532
Vname
p9533
V\u5c97\u5df4
p9534
sasa(dp9535
Vtype
p9536
I0
sVname
p9537
V\u963f\u91cc\u5730
p9538
sVsub
p9539
(lp9540
(dp9541
Vname
p9542
V\u5676\u5c14
p9543
sa(dp9544
Vname
p9545
V\u666e\u5170
p9546
sa(dp9547
Vname
p9548
V\u672d\u8fbe
p9549
sa(dp9550
Vname
p9551
V\u65e5\u571f
p9552
sa(dp9553
Vname
p9554
V\u9769\u5409
p9555
sa(dp9556
Vname
p9557
V\u6539\u5219
p9558
sa(dp9559
Vname
p9560
V\u63aa\u52e4
p9561
sasasa(dp9562
Vtype
p9563
I1
sVname
p9564
V\u6d77\u5357
p9565
sVsub
p9566
(lp9567
(dp9568
Vtype
p9569
I0
sVname
p9570
V\u6d77\u53e3
p9571
sVsub
p9572
(lp9573
(dp9574
Vname
p9575
V\u9f99\u534e
p9576
sa(dp9577
Vname
p9578
V\u79c0\u82f1
p9579
sa(dp9580
Vname
p9581
V\u743c\u5c71
p9582
sa(dp9583
Vname
p9584
V\u7f8e\u5170
p9585
sasa(dp9586
Vtype
p9587
I0
sVname
p9588
V\u4e09\u4e9a
p9589
sVsub
p9590
(lp9591
(dp9592
Vname
p9593
V\u4e09\u4e9a
p9594
sasa(dp9595
Vtype
p9596
I0
sVname
p9597
V\u4e94\u6307\u5c71
p9598
sVsub
p9599
(lp9600
sa(dp9601
Vtype
p9602
I0
sVname
p9603
V\u743c\u6d77
p9604
sVsub
p9605
(lp9606
sa(dp9607
Vtype
p9608
I0
sVname
p9609
V\u510b\u5dde
p9610
sVsub
p9611
(lp9612
sa(dp9613
Vtype
p9614
I0
sVname
p9615
V\u6587\u660c
p9616
sVsub
p9617
(lp9618
sa(dp9619
Vtype
p9620
I0
sVname
p9621
V\u4e07\u5b81
p9622
sVsub
p9623
(lp9624
sa(dp9625
Vtype
p9626
I0
sVname
p9627
V\u4e1c\u65b9
p9628
sVsub
p9629
(lp9630
sa(dp9631
Vtype
p9632
I0
sVname
p9633
V\u6f84\u8fc8
p9634
sVsub
p9635
(lp9636
sa(dp9637
Vtype
p9638
I0
sVname
p9639
V\u5b9a\u5b89
p9640
sVsub
p9641
(lp9642
sa(dp9643
Vtype
p9644
I0
sVname
p9645
V\u5c6f\u660c
p9646
sVsub
p9647
(lp9648
sa(dp9649
Vtype
p9650
I0
sVname
p9651
V\u4e34\u9ad8
p9652
sVsub
p9653
(lp9654
sa(dp9655
Vtype
p9656
I0
sVname
p9657
V\u767d\u6c99\u9ece\u65cf\u81ea\u6cbb
p9658
sVsub
p9659
(lp9660
sa(dp9661
Vtype
p9662
I0
sVname
p9663
V\u660c\u6c5f\u9ece\u65cf\u81ea\u6cbb
p9664
sVsub
p9665
(lp9666
sa(dp9667
Vtype
p9668
I0
sVname
p9669
V\u4e50\u4e1c\u9ece\u65cf\u81ea\u6cbb
p9670
sVsub
p9671
(lp9672
sa(dp9673
Vtype
p9674
I0
sVname
p9675
V\u9675\u6c34\u9ece\u65cf\u81ea\u6cbb
p9676
sVsub
p9677
(lp9678
sa(dp9679
Vtype
p9680
I0
sVname
p9681
V\u4fdd\u4ead\u9ece\u65cf\u82d7\u65cf\u81ea\u6cbb
p9682
sVsub
p9683
(lp9684
sa(dp9685
Vtype
p9686
I0
sVname
p9687
V\u743c\u4e2d\u9ece\u65cf\u82d7\u65cf\u81ea\u6cbb
p9688
sVsub
p9689
(lp9690
sasa(dp9691
Vtype
p9692
I1
sVname
p9693
V\u7518\u8083
p9694
sVsub
p9695
(lp9696
(dp9697
Vtype
p9698
I0
sVname
p9699
V\u5170\u5dde
p9700
sVsub
p9701
(lp9702
(dp9703
Vname
p9704
V\u57ce\u5173
p9705
sa(dp9706
Vname
p9707
V\u4e03\u91cc\u6cb3
p9708
sa(dp9709
Vname
p9710
V\u897f\u56fa
p9711
sa(dp9712
Vname
p9713
V\u5b89\u5b81
p9714
sa(dp9715
Vname
p9716
V\u7ea2\u53e4
p9717
sa(dp9718
Vname
p9719
V\u6c38\u767b
p9720
sa(dp9721
Vname
p9722
V\u768b\u5170
p9723
sa(dp9724
Vname
p9725
V\u6986\u4e2d
p9726
sasa(dp9727
Vtype
p9728
I0
sVname
p9729
V\u5609\u5cea\u5173
p9730
sVsub
p9731
(lp9732
(dp9733
Vname
p9734
V\u5609\u5cea\u5173
p9735
sasa(dp9736
Vtype
p9737
I0
sVname
p9738
V\u91d1\u660c
p9739
sVsub
p9740
(lp9741
(dp9742
Vname
p9743
V\u91d1\u5ddd
p9744
sa(dp9745
Vname
p9746
V\u6c38\u660c
p9747
sasa(dp9748
Vtype
p9749
I0
sVname
p9750
V\u767d\u94f6
p9751
sVsub
p9752
(lp9753
(dp9754
Vname
p9755
V\u767d\u94f6
p9756
sa(dp9757
Vname
p9758
V\u5e73\u5ddd
p9759
sa(dp9760
Vname
p9761
V\u9756\u8fdc
p9762
sa(dp9763
Vname
p9764
V\u4f1a\u5b81
p9765
sa(dp9766
Vname
p9767
V\u666f\u6cf0
p9768
sasa(dp9769
Vtype
p9770
I0
sVname
p9771
V\u5929\u6c34
p9772
sVsub
p9773
(lp9774
(dp9775
Vname
p9776
V\u6e05\u6c34
p9777
sa(dp9778
Vname
p9779
V\u79e6\u5b89
p9780
sa(dp9781
Vname
p9782
V\u7518\u8c37
p9783
sa(dp9784
Vname
p9785
V\u6b66\u5c71
p9786
sa(dp9787
Vname
p9788
V\u5f20\u5bb6\u5ddd\u56de\u65cf\u81ea\u6cbb
p9789
sa(dp9790
Vname
p9791
V\u5317\u9053
p9792
sa(dp9793
Vname
p9794
V\u79e6\u57ce
p9795
sasa(dp9796
Vtype
p9797
I0
sVname
p9798
V\u6b66\u5a01
p9799
sVsub
p9800
(lp9801
(dp9802
Vname
p9803
V\u51c9\u5dde
p9804
sa(dp9805
Vname
p9806
V\u6c11\u52e4
p9807
sa(dp9808
Vname
p9809
V\u53e4\u6d6a
p9810
sa(dp9811
Vname
p9812
V\u5929\u795d\u85cf\u65cf\u81ea\u6cbb
p9813
sasa(dp9814
Vtype
p9815
I0
sVname
p9816
V\u9152\u6cc9
p9817
sVsub
p9818
(lp9819
(dp9820
Vname
p9821
V\u8083\u5dde
p9822
sa(dp9823
Vname
p9824
V\u7389\u95e8
p9825
sa(dp9826
Vname
p9827
V\u6566\u714c
p9828
sa(dp9829
Vname
p9830
V\u91d1\u5854
p9831
sa(dp9832
Vname
p9833
V\u8083\u5317\u8499\u53e4\u65cf\u81ea\u6cbb
p9834
sa(dp9835
Vname
p9836
V\u963f\u514b\u585e\u54c8\u8428\u514b\u65cf\u81ea\u6cbb
p9837
sa(dp9838
Vname
p9839
V\u5b89\u897f
p9840
sasa(dp9841
Vtype
p9842
I0
sVname
p9843
V\u5f20\u6396
p9844
sVsub
p9845
(lp9846
(dp9847
Vname
p9848
V\u7518\u5dde
p9849
sa(dp9850
Vname
p9851
V\u6c11\u4e50
p9852
sa(dp9853
Vname
p9854
V\u4e34\u6cfd
p9855
sa(dp9856
Vname
p9857
V\u9ad8\u53f0
p9858
sa(dp9859
Vname
p9860
V\u5c71\u4e39
p9861
sa(dp9862
Vname
p9863
V\u8083\u5357\u88d5\u56fa\u65cf\u81ea\u6cbb
p9864
sasa(dp9865
Vtype
p9866
I0
sVname
p9867
V\u5e86\u9633
p9868
sVsub
p9869
(lp9870
(dp9871
Vname
p9872
V\u897f\u5cf0
p9873
sa(dp9874
Vname
p9875
V\u5e86\u57ce
p9876
sa(dp9877
Vname
p9878
V\u73af
sa(dp9879
Vname
p9880
V\u534e\u6c60
p9881
sa(dp9882
Vname
p9883
V\u5408\u6c34
p9884
sa(dp9885
Vname
p9886
V\u6b63\u5b81
p9887
sa(dp9888
Vname
p9889
V\u5b81
sa(dp9890
Vname
p9891
V\u9547\u539f
p9892
sasa(dp9893
Vtype
p9894
I0
sVname
p9895
V\u5e73\u51c9
p9896
sVsub
p9897
(lp9898
(dp9899
Vname
p9900
V\u5d06\u5cd2
p9901
sa(dp9902
Vname
p9903
V\u6cfe\u5ddd
p9904
sa(dp9905
Vname
p9906
V\u7075\u53f0
p9907
sa(dp9908
Vname
p9909
V\u5d07\u4fe1
p9910
sa(dp9911
Vname
p9912
V\u534e\u4ead
p9913
sa(dp9914
Vname
p9915
V\u5e84\u6d6a
p9916
sa(dp9917
Vname
p9918
V\u9759\u5b81
p9919
sasa(dp9920
Vtype
p9921
I0
sVname
p9922
V\u5b9a\u897f
p9923
sVsub
p9924
(lp9925
(dp9926
Vname
p9927
V\u5b89\u5b9a
p9928
sa(dp9929
Vname
p9930
V\u901a\u6e2d
p9931
sa(dp9932
Vname
p9933
V\u4e34\u6d2e
p9934
sa(dp9935
Vname
p9936
V\u6f33
sa(dp9937
Vname
p9938
V\u5cb7
sa(dp9939
Vname
p9940
V\u6e2d\u6e90
p9941
sa(dp9942
Vname
p9943
V\u9647\u897f
p9944
sasa(dp9945
Vtype
p9946
I0
sVname
p9947
V\u9647\u5357
p9948
sVsub
p9949
(lp9950
(dp9951
Vname
p9952
V\u6b66\u90fd
p9953
sa(dp9954
Vname
p9955
V\u6210
sa(dp9956
Vname
p9957
V\u5b95\u660c
p9958
sa(dp9959
Vname
p9960
V\u5eb7
sa(dp9961
Vname
p9962
V\u6587
sa(dp9963
Vname
p9964
V\u897f\u548c
p9965
sa(dp9966
Vname
p9967
V\u793c
sa(dp9968
Vname
p9969
V\u4e24\u5f53
p9970
sa(dp9971
Vname
p9972
V\u5fbd
sasa(dp9973
Vtype
p9974
I0
sVname
p9975
V\u4e34\u590f\u56de\u65cf\u81ea\u6cbb\u5dde
p9976
sVsub
p9977
(lp9978
(dp9979
Vname
p9980
V\u4e34\u590f
p9981
sa(dp9982
Vname
p9983
V\u4e34\u590f
p9984
sa(dp9985
Vname
p9986
V\u5eb7\u4e50
p9987
sa(dp9988
Vname
p9989
V\u6c38\u9756
p9990
sa(dp9991
Vname
p9992
V\u5e7f\u6cb3
p9993
sa(dp9994
Vname
p9995
V\u548c\u653f
p9996
sa(dp9997
Vname
p9998
V\u4e1c\u4e61\u65cf\u81ea\u6cbb
p9999
sa(dp10000
Vname
p10001
V\u79ef\u77f3\u5c71\u4fdd\u5b89\u65cf\u4e1c\u4e61\u65cf\u6492\u62c9\u65cf\u81ea\u6cbb
p10002
sasa(dp10003
Vtype
p10004
I0
sVname
p10005
V\u7518\u5357\u85cf\u65cf\u81ea\u6cbb\u5dde
p10006
sVsub
p10007
(lp10008
(dp10009
Vname
p10010
V\u5408\u4f5c
p10011
sa(dp10012
Vname
p10013
V\u4e34\u6f6d
p10014
sa(dp10015
Vname
p10016
V\u5353\u5c3c
p10017
sa(dp10018
Vname
p10019
V\u821f\u66f2
p10020
sa(dp10021
Vname
p10022
V\u8fed\u90e8
p10023
sa(dp10024
Vname
p10025
V\u739b\u66f2
p10026
sa(dp10027
Vname
p10028
V\u788c\u66f2
p10029
sa(dp10030
Vname
p10031
V\u590f\u6cb3
p10032
sasasa(dp10033
Vtype
p10034
I1
sVname
p10035
V\u5b81\u590f
p10036
sVsub
p10037
(lp10038
(dp10039
Vtype
p10040
I0
sVname
p10041
V\u94f6\u5ddd
p10042
sVsub
p10043
(lp10044
(dp10045
Vname
p10046
V\u5174\u5e86
p10047
sa(dp10048
Vname
p10049
V\u897f\u590f
p10050
sa(dp10051
Vname
p10052
V\u91d1\u51e4
p10053
sa(dp10054
Vname
p10055
V\u7075\u6b66
p10056
sa(dp10057
Vname
p10058
V\u6c38\u5b81
p10059
sa(dp10060
Vname
p10061
V\u8d3a\u5170
p10062
sasa(dp10063
Vtype
p10064
I0
sVname
p10065
V\u77f3\u5634\u5c71
p10066
sVsub
p10067
(lp10068
(dp10069
Vname
p10070
V\u5927\u6b66\u53e3
p10071
sa(dp10072
Vname
p10073
V\u60e0\u519c
p10074
sa(dp10075
Vname
p10076
V\u5e73\u7f57
p10077
sasa(dp10078
Vtype
p10079
I0
sVname
p10080
V\u5434\u5fe0
p10081
sVsub
p10082
(lp10083
(dp10084
Vname
p10085
V\u5229\u901a
p10086
sa(dp10087
Vname
p10088
V\u9752\u94dc\u5ce1
p10089
sa(dp10090
Vname
p10091
V\u76d0\u6c60
p10092
sa(dp10093
Vname
p10094
V\u540c\u5fc3
p10095
sasa(dp10096
Vtype
p10097
I0
sVname
p10098
V\u56fa\u539f
p10099
sVsub
p10100
(lp10101
(dp10102
Vname
p10103
V\u539f\u5dde
p10104
sa(dp10105
Vname
p10106
V\u897f\u5409
p10107
sa(dp10108
Vname
p10109
V\u9686\u5fb7
p10110
sa(dp10111
Vname
p10112
V\u6cfe\u6e90
p10113
sa(dp10114
Vname
p10115
V\u5f6d\u9633
p10116
sasa(dp10117
Vtype
p10118
I0
sVname
p10119
V\u4e2d\u536b
p10120
sVsub
p10121
(lp10122
(dp10123
Vname
p10124
V\u6c99\u5761\u5934
p10125
sa(dp10126
Vname
p10127
V\u4e2d\u5b81
p10128
sa(dp10129
Vname
p10130
V\u6d77\u539f
p10131
sasasa(dp10132
Vtype
p10133
I1
sVname
p10134
V\u9752\u6d77
p10135
sVsub
p10136
(lp10137
(dp10138
Vtype
p10139
I0
sVname
p10140
V\u897f\u5b81
p10141
sVsub
p10142
(lp10143
(dp10144
Vname
p10145
V\u57ce\u4e2d
p10146
sa(dp10147
Vname
p10148
V\u57ce\u4e1c
p10149
sa(dp10150
Vname
p10151
V\u57ce\u897f
p10152
sa(dp10153
Vname
p10154
V\u57ce\u5317
p10155
sa(dp10156
Vname
p10157
V\u6e5f\u6e90
p10158
sa(dp10159
Vname
p10160
V\u6e5f\u4e2d
p10161
sa(dp10162
Vname
p10163
V\u5927\u901a\u56de\u65cf\u571f\u65cf\u81ea\u6cbb
p10164
sasa(dp10165
Vtype
p10166
I0
sVname
p10167
V\u6d77\u4e1c\u5730
p10168
sVsub
p10169
(lp10170
(dp10171
Vname
p10172
V\u5e73\u5b89
p10173
sa(dp10174
Vname
p10175
V\u4e50\u90fd
p10176
sa(dp10177
Vname
p10178
V\u6c11\u548c\u56de\u65cf\u571f\u65cf\u81ea\u6cbb
p10179
sa(dp10180
Vname
p10181
V\u4e92\u52a9\u571f\u65cf\u81ea\u6cbb
p10182
sa(dp10183
Vname
p10184
V\u5316\u9686\u56de\u65cf\u81ea\u6cbb
p10185
sa(dp10186
Vname
p10187
V\u5faa\u5316\u6492\u62c9\u65cf\u81ea\u6cbb
p10188
sasa(dp10189
Vtype
p10190
I0
sVname
p10191
V\u6d77\u5317\u85cf\u65cf\u81ea\u6cbb\u5dde
p10192
sVsub
p10193
(lp10194
(dp10195
Vname
p10196
V\u6d77\u664f
p10197
sa(dp10198
Vname
p10199
V\u7941\u8fde
p10200
sa(dp10201
Vname
p10202
V\u521a\u5bdf
p10203
sa(dp10204
Vname
p10205
V\u95e8\u6e90\u56de\u65cf\u81ea\u6cbb
p10206
sasa(dp10207
Vtype
p10208
I0
sVname
p10209
V\u6d77\u5357\u85cf\u65cf\u81ea\u6cbb\u5dde
p10210
sVsub
p10211
(lp10212
(dp10213
Vname
p10214
V\u5171\u548c
p10215
sa(dp10216
Vname
p10217
V\u540c\u5fb7
p10218
sa(dp10219
Vname
p10220
V\u8d35\u5fb7
p10221
sa(dp10222
Vname
p10223
V\u5174\u6d77
p10224
sa(dp10225
Vname
p10226
V\u8d35\u5357
p10227
sasa(dp10228
Vtype
p10229
I0
sVname
p10230
V\u9ec4\u5357\u85cf\u65cf\u81ea\u6cbb\u5dde
p10231
sVsub
p10232
(lp10233
(dp10234
Vname
p10235
V\u540c\u4ec1
p10236
sa(dp10237
Vname
p10238
V\u5c16\u624e
p10239
sa(dp10240
Vname
p10241
V\u6cfd\u5e93
p10242
sa(dp10243
Vname
p10244
V\u6cb3\u5357\u8499\u53e4\u65cf\u81ea\u6cbb
p10245
sasa(dp10246
Vtype
p10247
I0
sVname
p10248
V\u679c\u6d1b\u85cf\u65cf\u81ea\u6cbb\u5dde
p10249
sVsub
p10250
(lp10251
(dp10252
Vname
p10253
V\u739b\u6c81
p10254
sa(dp10255
Vname
p10256
V\u73ed\u739b
p10257
sa(dp10258
Vname
p10259
V\u7518\u5fb7
p10260
sa(dp10261
Vname
p10262
V\u8fbe\u65e5
p10263
sa(dp10264
Vname
p10265
V\u4e45\u6cbb
p10266
sa(dp10267
Vname
p10268
V\u739b\u591a
p10269
sasa(dp10270
Vtype
p10271
I0
sVname
p10272
V\u7389\u6811\u85cf\u65cf\u81ea\u6cbb\u5dde
p10273
sVsub
p10274
(lp10275
(dp10276
Vname
p10277
V\u7389\u6811
p10278
sa(dp10279
Vname
p10280
V\u6742\u591a
p10281
sa(dp10282
Vname
p10283
V\u79f0\u591a
p10284
sa(dp10285
Vname
p10286
V\u6cbb\u591a
p10287
sa(dp10288
Vname
p10289
V\u56ca\u8c26
p10290
sa(dp10291
Vname
p10292
V\u66f2\u9ebb\u83b1
p10293
sasa(dp10294
Vtype
p10295
I0
sVname
p10296
V\u6d77\u897f\u8499\u53e4\u65cf\u85cf\u65cf\u81ea\u6cbb\u5dde
p10297
sVsub
p10298
(lp10299
(dp10300
Vname
p10301
V\u5fb7\u4ee4\u54c8
p10302
sa(dp10303
Vname
p10304
V\u683c\u5c14\u6728
p10305
sa(dp10306
Vname
p10307
V\u4e4c\u5170
p10308
sa(dp10309
Vname
p10310
V\u90fd\u5170
p10311
sa(dp10312
Vname
p10313
V\u5929\u5cfb
p10314
sasasa(dp10315
Vtype
p10316
I1
sVname
p10317
V\u65b0\u7586
p10318
sVsub
p10319
(lp10320
(dp10321
Vtype
p10322
I0
sVname
p10323
V\u4e4c\u9c81\u6728\u9f50
p10324
sVsub
p10325
(lp10326
(dp10327
Vname
p10328
V\u5929\u5c71
p10329
sa(dp10330
Vname
p10331
V\u6c99\u4f9d\u5df4\u514b
p10332
sa(dp10333
Vname
p10334
V\u65b0
sa(dp10335
Vname
p10336
V\u6c34\u78e8\u6c9f
p10337
sa(dp10338
Vname
p10339
V\u5934\u5c6f\u6cb3
p10340
sa(dp10341
Vname
p10342
V\u8fbe\u5742\u57ce
p10343
sa(dp10344
Vname
p10345
V\u4e1c\u5c71
p10346
sa(dp10347
Vname
p10348
V\u4e4c\u9c81\u6728\u9f50
p10349
sasa(dp10350
Vtype
p10351
I0
sVname
p10352
V\u514b\u62c9\u739b\u4f9d
p10353
sVsub
p10354
(lp10355
(dp10356
Vname
p10357
V\u514b\u62c9\u739b\u4f9d
p10358
sa(dp10359
Vname
p10360
V\u72ec\u5c71\u5b50
p10361
sa(dp10362
Vname
p10363
V\u767d\u78b1\u6ee9
p10364
sa(dp10365
Vname
p10366
V\u4e4c\u5c14\u79be
p10367
sasa(dp10368
Vtype
p10369
I0
sVname
p10370
V\u5410\u9c81\u756a\u5730
p10371
sVsub
p10372
(lp10373
(dp10374
Vname
p10375
V\u5410\u9c81\u756a
p10376
sa(dp10377
Vname
p10378
V\u6258\u514b\u900a
p10379
sa(dp10380
Vname
p10381
V\u912f\u5584
p10382
sasa(dp10383
Vtype
p10384
I0
sVname
p10385
V\u54c8\u5bc6\u5730
p10386
sVsub
p10387
(lp10388
(dp10389
Vname
p10390
V\u54c8\u5bc6
p10391
sa(dp10392
Vname
p10393
V\u4f0a\u543e
p10394
sa(dp10395
Vname
p10396
V\u5df4\u91cc\u5764\u54c8\u8428\u514b\u81ea\u6cbb
p10397
sasa(dp10398
Vtype
p10399
I0
sVname
p10400
V\u548c\u7530\u5730
p10401
sVsub
p10402
(lp10403
(dp10404
Vname
p10405
V\u548c\u7530
p10406
sa(dp10407
Vname
p10408
V\u548c\u7530
p10409
sa(dp10410
Vname
p10411
V\u6d1b\u6d66
p10412
sa(dp10413
Vname
p10414
V\u6c11\u4e30
p10415
sa(dp10416
Vname
p10417
V\u76ae\u5c71
p10418
sa(dp10419
Vname
p10420
V\u7b56\u52d2
p10421
sa(dp10422
Vname
p10423
V\u4e8e\u7530
p10424
sa(dp10425
Vname
p10426
V\u58a8\u7389
p10427
sasa(dp10428
Vtype
p10429
I0
sVname
p10430
V\u963f\u514b\u82cf\u5730
p10431
sVsub
p10432
(lp10433
(dp10434
Vname
p10435
V\u963f\u514b\u82cf
p10436
sa(dp10437
Vname
p10438
V\u6e29\u5bbf
p10439
sa(dp10440
Vname
p10441
V\u6c99\u96c5
p10442
sa(dp10443
Vname
p10444
V\u62dc\u57ce
p10445
sa(dp10446
Vname
p10447
V\u963f\u74e6\u63d0
p10448
sa(dp10449
Vname
p10450
V\u5e93\u8f66
p10451
sa(dp10452
Vname
p10453
V\u67ef\u576a
p10454
sa(dp10455
Vname
p10456
V\u65b0\u548c
p10457
sa(dp10458
Vname
p10459
V\u4e4c\u4ec0
p10460
sasa(dp10461
Vtype
p10462
I0
sVname
p10463
V\u5580\u4ec0\u5730
p10464
sVsub
p10465
(lp10466
(dp10467
Vname
p10468
V\u5580\u4ec0
p10469
sa(dp10470
Vname
p10471
V\u5df4\u695a
p10472
sa(dp10473
Vname
p10474
V\u6cfd\u666e
p10475
sa(dp10476
Vname
p10477
V\u4f3d\u5e08
p10478
sa(dp10479
Vname
p10480
V\u53f6\u57ce
p10481
sa(dp10482
Vname
p10483
V\u5cb3\u666e\u6e56
p10484
sa(dp10485
Vname
p10486
V\u758f\u52d2
p10487
sa(dp10488
Vname
p10489
V\u9ea6\u76d6\u63d0
p10490
sa(dp10491
Vname
p10492
V\u82f1\u5409\u6c99
p10493
sa(dp10494
Vname
p10495
V\u838e\u8f66
p10496
sa(dp10497
Vname
p10498
V\u758f\u9644
p10499
sa(dp10500
Vname
p10501
V\u5854\u4ec0\u5e93\u5c14\u5e72\u5854\u5409\u514b\u81ea\u6cbb
p10502
sasa(dp10503
Vtype
p10504
I0
sVname
p10505
V\u514b\u5b5c\u52d2\u82cf\u67ef\u5c14\u514b\u5b5c\u81ea\u6cbb\u5dde
p10506
sVsub
p10507
(lp10508
(dp10509
Vname
p10510
V\u963f\u56fe\u4ec0
p10511
sa(dp10512
Vname
p10513
V\u963f\u5408\u5947
p10514
sa(dp10515
Vname
p10516
V\u4e4c\u6070
p10517
sa(dp10518
Vname
p10519
V\u963f\u514b\u9676
p10520
sasa(dp10521
Vtype
p10522
I0
sVname
p10523
V\u5df4\u97f3\u90ed\u695e\u8499\u53e4\u81ea\u6cbb\u5dde
p10524
sVsub
p10525
(lp10526
(dp10527
Vname
p10528
V\u5e93\u5c14\u52d2
p10529
sa(dp10530
Vname
p10531
V\u548c\u9759
p10532
sa(dp10533
Vname
p10534
V\u5c09\u7281
p10535
sa(dp10536
Vname
p10537
V\u548c\u7855
p10538
sa(dp10539
Vname
p10540
V\u4e14\u672b
p10541
sa(dp10542
Vname
p10543
V\u535a\u6e56
p10544
sa(dp10545
Vname
p10546
V\u8f6e\u53f0
p10547
sa(dp10548
Vname
p10549
V\u82e5\u7f8c
p10550
sa(dp10551
Vname
p10552
V\u7109\u8006\u56de\u65cf\u81ea\u6cbb
p10553
sasa(dp10554
Vtype
p10555
I0
sVname
p10556
V\u660c\u5409\u56de\u65cf\u81ea\u6cbb\u5dde
p10557
sVsub
p10558
(lp10559
(dp10560
Vname
p10561
V\u660c\u5409
p10562
sa(dp10563
Vname
p10564
V\u961c\u5eb7
p10565
sa(dp10566
Vname
p10567
V\u5947\u53f0
p10568
sa(dp10569
Vname
p10570
V\u739b\u7eb3\u65af
p10571
sa(dp10572
Vname
p10573
V\u5409\u6728\u8428\u5c14
p10574
sa(dp10575
Vname
p10576
V\u547c\u56fe\u58c1
p10577
sa(dp10578
Vname
p10579
V\u6728\u5792\u54c8\u8428\u514b\u81ea\u6cbb
p10580
sa(dp10581
Vname
p10582
V\u7c73\u6cc9
p10583
sasa(dp10584
Vtype
p10585
I0
sVname
p10586
V\u535a\u5c14\u5854\u62c9\u8499\u53e4\u81ea\u6cbb\u5dde
p10587
sVsub
p10588
(lp10589
(dp10590
Vname
p10591
V\u535a\u4e50
p10592
sa(dp10593
Vname
p10594
V\u7cbe\u6cb3
p10595
sa(dp10596
Vname
p10597
V\u6e29\u6cc9
p10598
sasa(dp10599
Vtype
p10600
I0
sVname
p10601
V\u77f3\u6cb3\u5b50
p10602
sVsub
p10603
(lp10604
sa(dp10605
Vtype
p10606
I0
sVname
p10607
V\u963f\u62c9\u5c14
p10608
sVsub
p10609
(lp10610
sa(dp10611
Vtype
p10612
I0
sVname
p10613
V\u56fe\u6728\u8212\u514b
p10614
sVsub
p10615
(lp10616
sa(dp10617
Vtype
p10618
I0
sVname
p10619
V\u4e94\u5bb6\u6e20
p10620
sVsub
p10621
(lp10622
sa(dp10623
Vtype
p10624
I0
sVname
p10625
V\u4f0a\u7281\u54c8\u8428\u514b\u81ea\u6cbb\u5dde
p10626
sVsub
p10627
(lp10628
(dp10629
Vname
p10630
V\u4f0a\u5b81
p10631
sa(dp10632
Vname
p10633
V\u594e\u5c6f
p10634
sa(dp10635
Vname
p10636
V\u4f0a\u5b81
p10637
sa(dp10638
Vname
p10639
V\u7279\u514b\u65af
p10640
sa(dp10641
Vname
p10642
V\u5c3c\u52d2\u514b
p10643
sa(dp10644
Vname
p10645
V\u662d\u82cf
p10646
sa(dp10647
Vname
p10648
V\u65b0\u6e90
p10649
sa(dp10650
Vname
p10651
V\u970d\u57ce
p10652
sa(dp10653
Vname
p10654
V\u5de9\u7559
p10655
sa(dp10656
Vname
p10657
V\u5bdf\u5e03\u67e5\u5c14\u9521\u4f2f\u81ea\u6cbb
p10658
sa(dp10659
Vname
p10660
V\u5854\u57ce\u5730
p10661
sa(dp10662
Vname
p10663
V\u963f\u52d2\u6cf0\u5730
p10664
sasasa(dp10665
Vtype
p10666
I0
sVname
p10667
V\u9999\u6e2f
p10668
sVsub
p10669
(lp10670
(dp10671
Vname
p10672
V\u4e2d\u897f
p10673
sa(dp10674
Vname
p10675
V\u6e7e\u4ed4
p10676
sa(dp10677
Vname
p10678
V\u4e1c
sa(dp10679
Vname
p10680
V\u5357
sa(dp10681
Vname
p10682
V\u6df1\u6c34\u57d7
p10683
sa(dp10684
Vname
p10685
V\u6cb9\u5c16\u65fa
p10686
sa(dp10687
Vname
p10688
V\u4e5d\u9f99\u57ce
p10689
sa(dp10690
Vname
p10691
V\u9ec4\u5927\u4ed9
p10692
sa(dp10693
Vname
p10694
V\u89c2\u5858
p10695
sa(dp10696
Vname
p10697
V\u5317
sa(dp10698
Vname
p10699
V\u5927\u57d4
p10700
sa(dp10701
Vname
p10702
V\u6c99\u7530
p10703
sa(dp10704
Vname
p10705
V\u897f\u8d21
p10706
sa(dp10707
Vname
p10708
V\u5143\u6717
p10709
sa(dp10710
Vname
p10711
V\u5c6f\u95e8
p10712
sa(dp10713
Vname
p10714
V\u8343\u6e7e
p10715
sa(dp10716
Vname
p10717
V\u8475\u9752
p10718
sa(dp10719
Vname
p10720
V\u79bb\u5c9b
p10721
sasa(dp10722
Vtype
p10723
I0
sVname
p10724
V\u6fb3\u95e8
p10725
sVsub
p10726
(lp10727
(dp10728
Vname
p10729
V\u82b1\u5730\u739b\u5802
p10730
sa(dp10731
Vname
p10732
V\u5723\u5b89\u591a\u5c3c\u5802
p10733
sa(dp10734
Vname
p10735
V\u5927\u5802
p10736
sa(dp10737
Vname
p10738
V\u671b\u5fb7\u5802
p10739
sa(dp10740
Vname
p10741
V\u98ce\u987a\u5802
p10742
sa(dp10743
Vname
p10744
V\u5609\u6a21\u5802
p10745
sa(dp10746
Vname
p10747
V\u5723\u65b9\u6d4e\u5404\u5802
p10748
sa(dp10749
Vname
p10750
V\u8def\u51fc
p10751
sasa(dp10752
Vtype
p10753
I0
sVname
p10754
V\u53f0\u6e7e
p10755
sVsub
p10756
(lp10757
(dp10758
Vname
p10759
V\u53f0\u5317
p10760
sa(dp10761
Vname
p10762
V\u9ad8\u96c4
p10763
sa(dp10764
Vname
p10765
V\u53f0\u5317
p10766
sa(dp10767
Vname
p10768
V\u6843\u56ed
p10769
sa(dp10770
Vname
p10771
V\u65b0\u7af9
p10772
sa(dp10773
Vname
p10774
V\u82d7\u6817
p10775
sa(dp10776
Vname
p10777
V\u53f0\u4e2d
p10778
sa(dp10779
Vname
p10780
V\u5f70\u5316
p10781
sa(dp10782
Vname
p10783
V\u5357\u6295
p10784
sa(dp10785
Vname
p10786
V\u4e91\u6797
p10787
sa(dp10788
Vname
p10789
V\u5609\u4e49
p10790
sa(dp10791
Vname
p10792
V\u53f0\u5357
p10793
sa(dp10794
Vname
p10795
V\u9ad8\u96c4
p10796
sa(dp10797
Vname
p10798
V\u5c4f\u4e1c
p10799
sa(dp10800
Vname
p10801
V\u5b9c\u5170
p10802
sa(dp10803
Vname
p10804
V\u82b1\u83b2
p10805
sa(dp10806
Vname
p10807
V\u53f0\u4e1c
p10808
sa(dp10809
Vname
p10810
V\u6f8e\u6e56
p10811
sa(dp10812
Vname
p10813
V\u57fa\u9686
p10814
sa(dp10815
Vname
p10816
V\u65b0\u7af9
p10817
sa(dp10818
Vname
p10819
V\u53f0\u4e2d
p10820
sa(dp10821
Vname
p10822
V\u5609\u4e49
p10823
sa(dp10824
Vname
p10825
V\u53f0\u5357
p10826
sasa(dp10827
Vtype
p10828
I0
sVname
p10829
V\u6d77\u5916
p10830
sVsub
p10831
(lp10832
sa.